(lp1
F-58.356745296930363
acnumpy.core.multiarray
_reconstruct
p2
(cnumpy
ndarray
p3
(I0
tS'b'
tRp4
(I1
(I3
tcnumpy
dtype
p5
(S'f8'
I0
I1
tRp6
(I3
S'<'
NNNI-1
I-1
I0
tbI00
S'\xe8\x1f.\xa87m\xd5?\x9f\x1a\x9e$\xab\xa8\xe1?#\x13\xba\xac\xa2\t\xd7?'
tbaI0
aF382.04705095291138
a.