(lp1
F-48.253028493172465
acnumpy.core.multiarray
_reconstruct
p2
(cnumpy
ndarray
p3
(I0
tS'b'
tRp4
(I1
(I3
tcnumpy
dtype
p5
(S'f8'
I0
I1
tRp6
(I3
S'<'
NNNI-1
I-1
I0
tbI00
S'\x8f\x01!1\xc7\xa2\xe1?P\xbc\x1999\x9b\xd7?\xaa\xa4\xfeG"\xe7\xdc?'
tbaI0
aF331.21151399612427
a.