(lp1
F-36.840803708431622
acnumpy.core.multiarray
_reconstruct
p2
(cnumpy
ndarray
p3
(I0
tS'b'
tRp4
(I1
(I3
tcnumpy
dtype
p5
(S'f8'
I0
I1
tRp6
(I3
S'<'
NNNI-1
I-1
I0
tbI00
S'\xb1\x04C^\xd3\x1c\xea?y\x84\x04\xe4\x98\n\xe2?\xce\xcd\xf5$\xa0\xda\xca?'
tbaI0
aF331.34260010719299
a.