(lp1
F-47.149606257713735
acnumpy.core.multiarray
_reconstruct
p2
(cnumpy
ndarray
p3
(I0
tS'b'
tRp4
(I1
(I3
tcnumpy
dtype
p5
(S'f8'
I0
I1
tRp6
(I3
S'<'
NNNI-1
I-1
I0
tbI00
S'\\\x8f\xe2PC\xff\xd8?\xb8\x1e\x95E(|\xdf?\x9a\x99\xc9\xab}\x15\xdc?'
tbaI0
aF332.71173620223999
a.