(lp1
F-44.639320569251815
acnumpy.core.multiarray
_reconstruct
p2
(cnumpy
ndarray
p3
(I0
tS'b'
tRp4
(I1
(I3
tcnumpy
dtype
p5
(S'f8'
I0
I1
tRp6
(I3
S'<'
NNNI-1
I-1
I0
tbI00
S'c\xaf=\xed\xcb\x1c\xde?2\x81\xcc\xe2l\xd0\xdf?\x95"L5\xfb\xe0\xd9?'
tbaI0
aF326.77622389793396
a.