(lp1
F-58.454348629228477
acnumpy.core.multiarray
_reconstruct
p2
(cnumpy
ndarray
p3
(I0
tS'b'
tRp4
(I1
(I3
tcnumpy
dtype
p5
(S'f8'
I0
I1
tRp6
(I3
S'<'
NNNI-1
I-1
I0
tbI00
S'Fh\x08\x81\xb9n\xe6?\x96\x9b\x82=\x0c\x9b\xde?`O\r\x05(\x93\xd3?'
tbaI0
aF331.83367300033569
a.