(lp1
F-64.023554462244562
acnumpy.core.multiarray
_reconstruct
p2
(cnumpy
ndarray
p3
(I0
tS'b'
tRp4
(I1
(I3
tcnumpy
dtype
p5
(S'f8'
I0
I1
tRp6
(I3
S'<'
NNNI-1
I-1
I0
tbI00
S'6"\xa4+\xa2/\xe2?\x18\xc3\x05\xb0\x7f\xfc\xe0?\x86\xc1\xf1N\x80\x0c\xd2?'
tbaI0
aF331.49360489845276
a.