(lp1
F-52.659894461253359
acnumpy.core.multiarray
_reconstruct
p2
(cnumpy
ndarray
p3
(I0
tS'b'
tRp4
(I1
(I3
tcnumpy
dtype
p5
(S'f8'
I0
I1
tRp6
(I3
S'<'
NNNI-1
I-1
I0
tbI00
S'\x0edc)G/\xe3?n\xcc~t\xca\x1e\xe0?\x056s\x0e.A\xd7?'
tbaI0
aF330.9770610332489
a.