(lp1
F-48.40103872926656
acnumpy.core.multiarray
_reconstruct
p2
(cnumpy
ndarray
p3
(I0
tS'b'
tRp4
(I1
(I3
tcnumpy
dtype
p5
(S'f8'
I0
I1
tRp6
(I3
S'<'
NNNI-1
I-1
I0
tbI00
S'\xe0\xaeU\xd2\xc7\x01\xd6?H\xb6\xd4\xc2\xde^\xd8?\xcb3b\xb6\x0e\xc4\xdd?'
tbaI0
aF344.19461297988892
a.