(lp1
F-33.822528496098144
acnumpy.core.multiarray
_reconstruct
p2
(cnumpy
ndarray
p3
(I0
tS'b'
tRp4
(I1
(I3
tcnumpy
dtype
p5
(S'f8'
I0
I1
tRp6
(I3
S'<'
NNNI-1
I-1
I0
tbI00
S'\xef<\xcenX\xaf\xe0?\xe3\xae\xb6\x0b\x15\xa1\xe1?$5\xf3\xdd\xd8\x15\xda?'
tbaI0
aF328.82863807678223
a.