(lp1
F-56.760344304730403
acnumpy.core.multiarray
_reconstruct
p2
(cnumpy
ndarray
p3
(I0
tS'b'
tRp4
(I1
(I3
tcnumpy
dtype
p5
(S'f8'
I0
I1
tRp6
(I3
S'<'
NNNI-1
I-1
I0
tbI00
S'\xbc`F\xa4\xcb\xbe\xdc?\xa7\xe5I\xff\xe9\xff\xdd?\xae\x0e\xaf5l\x05\xdb?'
tbaI0
aF330.73038911819458
a.