(lp1
F-43.306872051142911
acnumpy.core.multiarray
_reconstruct
p2
(cnumpy
ndarray
p3
(I0
tS'b'
tRp4
(I1
(I3
tcnumpy
dtype
p5
(S'f8'
I0
I1
tRp6
(I3
S'<'
NNNI-1
I-1
I0
tbI00
S'\xe1z\xac6v\x10\xea?\n\xd7\xb3\x01\xbf3\xde?33c\\\xb3\xc9\xde?'
tbaI0
aF331.51727318763733
a.