(lp1
F-29.476091809818573
acnumpy.core.multiarray
_reconstruct
p2
(cnumpy
ndarray
p3
(I0
tS'b'
tRp4
(I1
(I3
tcnumpy
dtype
p5
(S'f8'
I0
I1
tRp6
(I3
S'<'
NNNI-1
I-1
I0
tbI00
S'q=\n\x9d\x01\xc3\xe5?\xaeG\x81\xa5\x97\xba\xde?33\x9b\x87?\xac\xe0?'
tbaI0
aF333.56729602813721
a.