(lp1
F-18.861405203449742
acnumpy.core.multiarray
_reconstruct
p2
(cnumpy
ndarray
p3
(I0
tS'b'
tRp4
(I1
(I3
tcnumpy
dtype
p5
(S'f8'
I0
I1
tRp6
(I3
S'<'
NNNI-1
I-1
I0
tbI00
S'%\xfcK\xef{\xe2\xe3>(L\x92G\xa4\xc9\xdb?\xa6a^\xbd\x97\xc0\xdf?'
tbaI0
aF329.17340493202209
a.