(lp1
F-64.491398609696091
acnumpy.core.multiarray
_reconstruct
p2
(cnumpy
ndarray
p3
(I0
tS'b'
tRp4
(I1
(I3
tcnumpy
dtype
p5
(S'f8'
I0
I1
tRp6
(I3
S'<'
NNNI-1
I-1
I0
tbI00
S'\xf8x\x9b\x0c\x92J\xdb?\x83\x88\x9da\x136\xe2?E/\x93^\x18\x98\xd0?'
tbaI0
aF333.76260805130005
a.