(lp1
F-37.595593872727591
acnumpy.core.multiarray
_reconstruct
p2
(cnumpy
ndarray
p3
(I0
tS'b'
tRp4
(I1
(I3
tcnumpy
dtype
p5
(S'f8'
I0
I1
tRp6
(I3
S'<'
NNNI-1
I-1
I0
tbI00
S'|O\x10\x998Y\xec?e\xbf\x81g5"\xe2?\xe3\xefc\xb1@\xc6\xd1?'
tbaI0
aF333.0179967880249
a.