(lp1
F-39.523502905548526
acnumpy.core.multiarray
_reconstruct
p2
(cnumpy
ndarray
p3
(I0
tS'b'
tRp4
(I1
(I3
tcnumpy
dtype
p5
(S'f8'
I0
I1
tRp6
(I3
S'<'
NNNI-1
I-1
I0
tbI00
S'\x7f6\x9c\xb7\x01\xfa\xe9?\xe5~\xacyl!\xe3?\xb1\xad\xe9\xba\xae\xce\xc7?'
tbaI0
aF330.45530605316162
a.