(lp1
F-69.296260903848847
acnumpy.core.multiarray
_reconstruct
p2
(cnumpy
ndarray
p3
(I0
tS'b'
tRp4
(I1
(I3
tcnumpy
dtype
p5
(S'f8'
I0
I1
tRp6
(I3
S'<'
NNNI-1
I-1
I0
tbI00
S"\xd7\xa3`y\x8b\xa2\xd3?\n\xd7\x13<'\xe2\xd2?ffV\xb9\r:\xdb?"
tbaI0
aF350.11737418174744
a.