(lp1
F-63.623390543371727
acnumpy.core.multiarray
_reconstruct
p2
(cnumpy
ndarray
p3
(I0
tS'b'
tRp4
(I1
(I3
tcnumpy
dtype
p5
(S'f8'
I0
I1
tRp6
(I3
S'<'
NNNI-1
I-1
I0
tbI00
S'\x9fa\x07Sah#?\x1bi\xe8\x1e\x8e\xd6\xd7?@\xadd\x1f\xbf%\xde?'
tbaI0
aF331.1544828414917
a.