(lp1
F-33.869542396312461
acnumpy.core.multiarray
_reconstruct
p2
(cnumpy
ndarray
p3
(I0
tS'b'
tRp4
(I1
(I3
tcnumpy
dtype
p5
(S'f8'
I0
I1
tRp6
(I3
S'<'
NNNI-1
I-1
I0
tbI00
S'\x17\xc6V=\x81r\xe1?>#\x0b<=J\xde?\xfd\xf11\x89X\x0b\xdb?'
tbaI0
aF330.95034599304199
a.