(lp1
F-49.947600620925279
acnumpy.core.multiarray
_reconstruct
p2
(cnumpy
ndarray
p3
(I0
tS'b'
tRp4
(I1
(I3
tcnumpy
dtype
p5
(S'f8'
I0
I1
tRp6
(I3
S'<'
NNNI-1
I-1
I0
tbI00
S'(\x92B\\<\x01\xeb?\x84\x9b\x1f\xda\xfe\xe8\xe0?>\xc7\x81AR\xad\xcd?'
tbaI0
aF330.91073203086853
a.