(lp1
F-48.981806468887264
acnumpy.core.multiarray
_reconstruct
p2
(cnumpy
ndarray
p3
(I0
tS'b'
tRp4
(I1
(I3
tcnumpy
dtype
p5
(S'f8'
I0
I1
tRp6
(I3
S'<'
NNNI-1
I-1
I0
tbI00
S'\x14\xae\xbf\xfa\xcd\x9e\xe7?\xe1z\x84\xab\x88W\xe2?\n\xd7\xa3\xe5\x1e#\xa8?'
tbaI0
aF332.71666598320007
a.