(lp1
F-45.011294310486925
acnumpy.core.multiarray
_reconstruct
p2
(cnumpy
ndarray
p3
(I0
tS'b'
tRp4
(I1
(I3
tcnumpy
dtype
p5
(S'f8'
I0
I1
tRp6
(I3
S'<'
NNNI-1
I-1
I0
tbI00
S'\xb8\x1eu4\xbbo\xd8?{\x14\x1e\xa5S\x11\xdb?33\xc3\xd6#7\xd9?'
tbaI0
aF330.30185317993164
a.