(lp1
F-56.412860420150928
acnumpy.core.multiarray
_reconstruct
p2
(cnumpy
ndarray
p3
(I0
tS'b'
tRp4
(I1
(I3
tcnumpy
dtype
p5
(S'f8'
I0
I1
tRp6
(I3
S'<'
NNNI-1
I-1
I0
tbI00
S'Kn\x84%$^\xe2?\xec\xc0~\xd7\x93|\xe1?\xee\x81)\xa9\xe8\xee\xd6?'
tbaI0
aF367.68743109703064
a.