(lp1
F-35.410281149804518
acnumpy.core.multiarray
_reconstruct
p2
(cnumpy
ndarray
p3
(I0
tS'b'
tRp4
(I1
(I3
tcnumpy
dtype
p5
(S'f8'
I0
I1
tRp6
(I3
S'<'
NNNI-1
I-1
I0
tbI00
S'm\x94ls\x08X\xe2?\xcb\xec\x1d\tn$\xe1?s8\x95\xd9\x01R\xda?'
tbaI0
aF329.48615097999573
a.