(lp1
F-48.706776505551311
acnumpy.core.multiarray
_reconstruct
p2
(cnumpy
ndarray
p3
(I0
tS'b'
tRp4
(I1
(I3
tcnumpy
dtype
p5
(S'f8'
I0
I1
tRp6
(I3
S'<'
NNNI-1
I-1
I0
tbI00
S'\x00\x00\x88?\xde(\xea?)\\\xff\xab\x8e\x17\xdf?\x1f\x85\x0b\xecK\xbb\xd9?'
tbaI0
aF331.48310089111328
a.