(lp1
F-51.743705382790786
acnumpy.core.multiarray
_reconstruct
p2
(cnumpy
ndarray
p3
(I0
tS'b'
tRp4
(I1
(I3
tcnumpy
dtype
p5
(S'f8'
I0
I1
tRp6
(I3
S'<'
NNNI-1
I-1
I0
tbI00
S'\x00\x00\x00\x00\x00\x00\x00\x00\xc8\x83\xdf\xa0I.\xd7?a\xb9tHS\x12\xde?'
tbaI0
aF335.0446469783783
a.