(lp1
F-49.855639081795658
acnumpy.core.multiarray
_reconstruct
p2
(cnumpy
ndarray
p3
(I0
tS'b'
tRp4
(I1
(I3
tcnumpy
dtype
p5
(S'f8'
I0
I1
tRp6
(I3
S'<'
NNNI-1
I-1
I0
tbI00
S'H\xe1\xfa\xbf\x89t\xd8?q=\x1a\xc5J\x9c\xd8?H\xe1\xe2{83\xe0?'
tbaI0
aF327.13989591598511
a.