(lp1
F-56.170582724882081
acnumpy.core.multiarray
_reconstruct
p2
(cnumpy
ndarray
p3
(I0
tS'b'
tRp4
(I1
(I3
tcnumpy
dtype
p5
(S'f8'
I0
I1
tRp6
(I3
S'<'
NNNI-1
I-1
I0
tbI00
S'\xc7\xa3Z\xa2\xbfx\xe5?\x03\xe0\x0e9\x93\xcb\xda?\x07x\xae\xba\xb3\xde\xdb?'
tbaI0
aF334.91450905799866
a.