(lp1
F-25.176175538044102
acnumpy.core.multiarray
_reconstruct
p2
(cnumpy
ndarray
p3
(I0
tS'b'
tRp4
(I1
(I3
tcnumpy
dtype
p5
(S'f8'
I0
I1
tRp6
(I3
S'<'
NNNI-1
I-1
I0
tbI00
S'\n\xff\x10\x92\xa0\xb0\xda?>pDf<\x1e\xe2?-\t\x9dM\x96\xa4\xd1?'
tbaI0
aF331.02073907852173
a.