(lp1
F-43.365953399788502
acnumpy.core.multiarray
_reconstruct
p2
(cnumpy
ndarray
p3
(I0
tS'b'
tRp4
(I1
(I3
tcnumpy
dtype
p5
(S'f8'
I0
I1
tRp6
(I3
S'<'
NNNI-1
I-1
I0
tbI00
S'\xd6\x01\xf0|,\xbd\xe3?:\x1a?q<\x0b\xdb?C\x05Y\xfc\x97\x96\xdd?'
tbaI0
aF368.22260594367981
a.