(lp1
F-54.49595009326049
acnumpy.core.multiarray
_reconstruct
p2
(cnumpy
ndarray
p3
(I0
tS'b'
tRp4
(I1
(I3
tcnumpy
dtype
p5
(S'f8'
I0
I1
tRp6
(I3
S'<'
NNNI-1
I-1
I0
tbI00
S'\xc5\xc5\xf7\xa3\xd1\xff\xef?aC\xf1\xfb^9\xd8?D\xca\xad`\x9f\xa3\xdc?'
tbaI0
aF330.17886710166931
a.