(lp1
F-23.899003159618889
acnumpy.core.multiarray
_reconstruct
p2
(cnumpy
ndarray
p3
(I0
tS'b'
tRp4
(I1
(I3
tcnumpy
dtype
p5
(S'f8'
I0
I1
tRp6
(I3
S'<'
NNNI-1
I-1
I0
tbI00
S'\x08U\xc4\x8a8^\xe3?Y\x92\x0c\xee\xa0\xef\xe1?!\x9d[P\xac\xb2\xd6?'
tbaI0
aF329.60203194618225
a.