(lp1
F-48.902860943077222
acnumpy.core.multiarray
_reconstruct
p2
(cnumpy
ndarray
p3
(I0
tS'b'
tRp4
(I1
(I3
tcnumpy
dtype
p5
(S'f8'
I0
I1
tRp6
(I3
S'<'
NNNI-1
I-1
I0
tbI00
S'\xcc\xbd\xa6\xaa4\xbd\xe2?y\x00\rL\xb5\xc3\xda?\x00\xd9U\x83\xb5\x1c\xdc?'
tbaI0
aF331.09581995010376
a.