(lp1
F-50.829542665093676
acnumpy.core.multiarray
_reconstruct
p2
(cnumpy
ndarray
p3
(I0
tS'b'
tRp4
(I1
(I3
tcnumpy
dtype
p5
(S'f8'
I0
I1
tRp6
(I3
S'<'
NNNI-1
I-1
I0
tbI00
S'\xf7MY\xe8\x117\xe2?S\xb7\xc5\xe5n\xed\xd6?\xe2\x0b\x82\xdb\xde%\xdf?'
tbaI0
aF333.70454907417297
a.