(lp1
F-26.161925635290945
acnumpy.core.multiarray
_reconstruct
p2
(cnumpy
ndarray
p3
(I0
tS'b'
tRp4
(I1
(I3
tcnumpy
dtype
p5
(S'f8'
I0
I1
tRp6
(I3
S'<'
NNNI-1
I-1
I0
tbI00
S'\xef\x81k8\xfbe\xd9?\xd2\xe5\xc0\xce\xd9\xce\xe0??r\xaa\x0b\x179\xd3?'
tbaI0
aF368.76240801811218
a.