(lp1
F-33.707664403205527
acnumpy.core.multiarray
_reconstruct
p2
(cnumpy
ndarray
p3
(I0
tS'b'
tRp4
(I1
(I3
tcnumpy
dtype
p5
(S'f8'
I0
I1
tRp6
(I3
S'<'
NNNI-1
I-1
I0
tbI00
S'\xed\xc2|\x11\x1e\x8d\xe2?\xb0\xb6\x0b\x91\xc0\x98\xde?{\x18\x05Z6\xd9\xdf?'
tbaI0
aF367.43961310386658
a.