(lp1
F-31.674071000732678
acnumpy.core.multiarray
_reconstruct
p2
(cnumpy
ndarray
p3
(I0
tS'b'
tRp4
(I1
(I3
tcnumpy
dtype
p5
(S'f8'
I0
I1
tRp6
(I3
S'<'
NNNI-1
I-1
I0
tbI00
S'\xa6\xaaQ\xf0\xaf\x02\x1d?\x87B\x0eR\x00\xab\xd3?\x99b\xeb\x01\x03\xb5\xe1?'
tbaI0
aF328.39298319816589
a.