(lp1
F-38.441105401263698
acnumpy.core.multiarray
_reconstruct
p2
(cnumpy
ndarray
p3
(I0
tS'b'
tRp4
(I1
(I3
tcnumpy
dtype
p5
(S'f8'
I0
I1
tRp6
(I3
S'<'
NNNI-1
I-1
I0
tbI00
S'\xf0Y\x92\x90he\xe3?\xac\x84\x19n\xad6\xe1?\xae\x1e\x86\xdb\xb7?\xcf?'
tbaI0
aF353.52210688591003
a.