(lp1
F-50.220244273829806
acnumpy.core.multiarray
_reconstruct
p2
(cnumpy
ndarray
p3
(I0
tS'b'
tRp4
(I1
(I3
tcnumpy
dtype
p5
(S'f8'
I0
I1
tRp6
(I3
S'<'
NNNI-1
I-1
I0
tbI00
S"\xaeG\x11\x82\xcc\xe8\xde?\xf6(\\\x9f'\x9f\xdd?\x14\xae7\xd1oy\xdc?"
tbaI0
aF346.2441189289093
a.