(lp1
F-52.690445617807647
acnumpy.core.multiarray
_reconstruct
p2
(cnumpy
ndarray
p3
(I0
tS'b'
tRp4
(I1
(I3
tcnumpy
dtype
p5
(S'f8'
I0
I1
tRp6
(I3
S'<'
NNNI-1
I-1
I0
tbI00
S'\xe4\tXR\x93\x0f\xe0?\xb7\x99\xaf\r*Y\xe1?\x94\xaf\xfe\xf5\xaeh\xdb?'
tbaI0
aF373.57963800430298
a.