(lp1
F-51.915156885174916
acnumpy.core.multiarray
_reconstruct
p2
(cnumpy
ndarray
p3
(I0
tS'b'
tRp4
(I1
(I3
tcnumpy
dtype
p5
(S'f8'
I0
I1
tRp6
(I3
S'<'
NNNI-1
I-1
I0
tbI00
S'\x8a\x9a\xa3vid\x19?\xdf\xcc\xe4\x00L\xe5\xd4?\xeb\xdc\x1fo\xb5$\xe0?'
tbaI0
aF331.64147591590881
a.