(lp1
F-28.679357861971145
acnumpy.core.multiarray
_reconstruct
p2
(cnumpy
ndarray
p3
(I0
tS'b'
tRp4
(I1
(I3
tcnumpy
dtype
p5
(S'f8'
I0
I1
tRp6
(I3
S'<'
NNNI-1
I-1
I0
tbI00
S'\x11;\xf5\x84\xc0@\xe1?\xe9\xe6\x94\xba\xbb\xde\xda?n/\x84g\x8a\xfd\xde?'
tbaI0
aF334.37270092964172
a.