(lp1
F-54.390848335793635
acnumpy.core.multiarray
_reconstruct
p2
(cnumpy
ndarray
p3
(I0
tS'b'
tRp4
(I1
(I3
tcnumpy
dtype
p5
(S'f8'
I0
I1
tRp6
(I3
S'<'
NNNI-1
I-1
I0
tbI00
S"K\xfaYd\xd3AP?\xff\x05'\xfa\x025\xd6?\xdb\xd6\x1b\xa6\xdf\x1f\xd9?"
tbaI0
aF379.9858410358429
a.