(lp1
F-53.607483996128572
acnumpy.core.multiarray
_reconstruct
p2
(cnumpy
ndarray
p3
(I0
tS'b'
tRp4
(I1
(I3
tcnumpy
dtype
p5
(S'f8'
I0
I1
tRp6
(I3
S'<'
NNNI-1
I-1
I0
tbI00
S'\xa4p]\x17\xf7\xd9\xe4?R\xb8\xde*\x8d\x19\xdc?\xecQh\xc4|\x19\xdd?'
tbaI0
aF330.29244613647461
a.