(lp1
F-29.172677621953195
acnumpy.core.multiarray
_reconstruct
p2
(cnumpy
ndarray
p3
(I0
tS'b'
tRp4
(I1
(I3
tcnumpy
dtype
p5
(S'f8'
I0
I1
tRp6
(I3
S'<'
NNNI-1
I-1
I0
tbI00
S'\xc7\x0b\x85)T\x89\xe1?8\xe7Z\xe3W\x0f\xde?L\x99-\x8f}<\xde?'
tbaI0
aF357.68291592597961
a.