(lp1
F-38.619485524634683
acnumpy.core.multiarray
_reconstruct
p2
(cnumpy
ndarray
p3
(I0
tS'b'
tRp4
(I1
(I3
tcnumpy
dtype
p5
(S'f8'
I0
I1
tRp6
(I3
S'<'
NNNI-1
I-1
I0
tbI00
S'\xfc\x04\x05\xbeD\x83\xe1?\xe4\xd8\x7f[\xce&\xe0?tzI\x1c\x9cm\xd0?'
tbaI0
aF376.92805910110474
a.