(lp1
F-38.790775966452529
acnumpy.core.multiarray
_reconstruct
p2
(cnumpy
ndarray
p3
(I0
tS'b'
tRp4
(I1
(I3
tcnumpy
dtype
p5
(S'f8'
I0
I1
tRp6
(I3
S'<'
NNNI-1
I-1
I0
tbI00
S'\xd8\xa3\x16;x.\xd5?\xc5\xbcrCS4\xdf?Xi\xcd\xa1|9\xd9?'
tbaI0
aF86.415475845336914
a.