(lp1
F-57.814049472321706
acnumpy.core.multiarray
_reconstruct
p2
(cnumpy
ndarray
p3
(I0
tS'b'
tRp4
(I1
(I3
tcnumpy
dtype
p5
(S'f8'
I0
I1
tRp6
(I3
S'<'
NNNI-1
I-1
I0
tbI00
S'\xee\xf8\xc80;\xa1\xe6?A\xe9\x19-4s\xe1?\x96\xaa\x0b\x02\x98S\xda?'
tbaI0
aF78.74597692489624
a.