(lp1
F-50.606176868909031
acnumpy.core.multiarray
_reconstruct
p2
(cnumpy
ndarray
p3
(I0
tS'b'
tRp4
(I1
(I3
tcnumpy
dtype
p5
(S'f8'
I0
I1
tRp6
(I3
S'<'
NNNI-1
I-1
I0
tbI00
S'\xe0P]f\xe1"\xe4?\xab"\xfc\x14)d\xdd?a\x00\xc3n\xc6\xbf\xde?'
tbaI0
aF86.973891019821167
a.