(lp1
F-42.522518103900772
acnumpy.core.multiarray
_reconstruct
p2
(cnumpy
ndarray
p3
(I0
tS'b'
tRp4
(I1
(I3
tcnumpy
dtype
p5
(S'f8'
I0
I1
tRp6
(I3
S'<'
NNNI-1
I-1
I0
tbI00
S'\x99i\x93\x02\xd2\xff\xef?\x1d%3\xd2.O\xe0?\x10V\x19\x909\x8f\xe0?'
tbaI0
aF76.72451114654541
a.