(lp1
F-66.175334234860088
acnumpy.core.multiarray
_reconstruct
p2
(cnumpy
ndarray
p3
(I0
tS'b'
tRp4
(I1
(I3
tcnumpy
dtype
p5
(S'f8'
I0
I1
tRp6
(I3
S'<'
NNNI-1
I-1
I0
tbI00
S'{\xd4\xd4\x90\x12l\x19?#\xe4\x9c>\xcf\xa7\xd9?\x92\x8c\xe0\x1d\xb5\x91\xdf?'
tbaI0
aF80.995482921600342
a.