(lp1
F-31.740013106640287
acnumpy.core.multiarray
_reconstruct
p2
(cnumpy
ndarray
p3
(I0
tS'b'
tRp4
(I1
(I3
tcnumpy
dtype
p5
(S'f8'
I0
I1
tRp6
(I3
S'<'
NNNI-1
I-1
I0
tbI00
S'h{]\xc59m\xe1?O\x1d\xe0\xc7\xa7\x99\xdd?om\x80!\xb4\xfb\xe1?'
tbaI0
aF80.307511806488037
a.