(lp1
F-25.754838586839533
acnumpy.core.multiarray
_reconstruct
p2
(cnumpy
ndarray
p3
(I0
tS'b'
tRp4
(I1
(I3
tcnumpy
dtype
p5
(S'f8'
I0
I1
tRp6
(I3
S'<'
NNNI-1
I-1
I0
tbI00
S'\xc3\xf5\xa8#\xcf\x0c\xb5?\xa4p5X,\x03\xe0?\x14\xae\xb7\x9f\x94U\xd9?'
tbaI0
aF76.82633900642395
a.