(lp1
F-49.482969962571133
acnumpy.core.multiarray
_reconstruct
p2
(cnumpy
ndarray
p3
(I0
tS'b'
tRp4
(I1
(I3
tcnumpy
dtype
p5
(S'f8'
I0
I1
tRp6
(I3
S'<'
NNNI-1
I-1
I0
tbI00
S'#\xb8?e\x80\x11\xe4?\x14\xd8o\xf6\xa4\x90\xdc?\xea\xf4z\xb0\xfe\x83\xdb?'
tbaI0
aF80.094856977462769
a.