(lp1
F-56.172671760203514
acnumpy.core.multiarray
_reconstruct
p2
(cnumpy
ndarray
p3
(I0
tS'b'
tRp4
(I1
(I3
tcnumpy
dtype
p5
(S'f8'
I0
I1
tRp6
(I3
S'<'
NNNI-1
I-1
I0
tbI00
S"\xf1\x1eX\xdf\xafb\x19?'\xa4\xd2y\xccH\xe0?\xf7\xb8X2\x86\xf0\xdd?"
tbaI0
aF85.440093994140625
a.