(lp1
F-49.031380714303239
acnumpy.core.multiarray
_reconstruct
p2
(cnumpy
ndarray
p3
(I0
tS'b'
tRp4
(I1
(I3
tcnumpy
dtype
p5
(S'f8'
I0
I1
tRp6
(I3
S'<'
NNNI-1
I-1
I0
tbI00
S'\xc4\x1b\x8bkL-\xdf?\xa1\xcf\xa1\xe8\xe9\xfe\xde?G\xf7\xf7\xa8\xc5\x7f\xdb?'
tbaI0
aF77.574282884597778
a.