(lp1
F-52.300301697308086
acnumpy.core.multiarray
_reconstruct
p2
(cnumpy
ndarray
p3
(I0
tS'b'
tRp4
(I1
(I3
tcnumpy
dtype
p5
(S'f8'
I0
I1
tRp6
(I3
S'<'
NNNI-1
I-1
I0
tbI00
S'-0\xb5G\xb6\xe7\xe3?F\xe3\xdc4xw\xd9?R\xc5\xc7\xf3i\xda\xdd?'
tbaI0
aF77.394832134246826
a.