(lp1
F-28.406967716395425
acnumpy.core.multiarray
_reconstruct
p2
(cnumpy
ndarray
p3
(I0
tS'b'
tRp4
(I1
(I3
tcnumpy
dtype
p5
(S'f8'
I0
I1
tRp6
(I3
S'<'
NNNI-1
I-1
I0
tbI00
S'\xba\x90\xba\x0c\xb4\xde\xe4?\xe3\xca\xe03\xa8o\xe1?_w\xafnQ{\xdc?'
tbaI0
aF80.718268871307373
a.