(lp1
F-50.897583618743887
acnumpy.core.multiarray
_reconstruct
p2
(cnumpy
ndarray
p3
(I0
tS'b'
tRp4
(I1
(I3
tcnumpy
dtype
p5
(S'f8'
I0
I1
tRp6
(I3
S'<'
NNNI-1
I-1
I0
tbI00
S'\x9b\\\xf7\x84nl\x19?\x02\xee\xf8\x11\xa3G\xe1?\x07Z\xc8\x0b\x88V\xe0?'
tbaI0
aF75.708414077758789
a.