(lp1
F-22.915330643632217
acnumpy.core.multiarray
_reconstruct
p2
(cnumpy
ndarray
p3
(I0
tS'b'
tRp4
(I1
(I3
tcnumpy
dtype
p5
(S'f8'
I0
I1
tRp6
(I3
S'<'
NNNI-1
I-1
I0
tbI00
S'\xcd\xcc\xccn\xbc\xa5\xc0?ff\x862|9\xdc?ffF\xf5\x84V\xdf?'
tbaI0
aF71.184465885162354
a.