(lp1
F-33.548242436920262
acnumpy.core.multiarray
_reconstruct
p2
(cnumpy
ndarray
p3
(I0
tS'b'
tRp4
(I1
(I3
tcnumpy
dtype
p5
(S'f8'
I0
I1
tRp6
(I3
S'<'
NNNI-1
I-1
I0
tbI00
S'V\xb6\xa4\xd4\xe7\xc4\x1b?6\xd2+\x0b\x85\xcb\xd9?B_:\xe8\xc2{\xe0?'
tbaI0
aF74.490458011627197
a.