(lp1
F-53.60007097675706
acnumpy.core.multiarray
_reconstruct
p2
(cnumpy
ndarray
p3
(I0
tS'b'
tRp4
(I1
(I3
tcnumpy
dtype
p5
(S'f8'
I0
I1
tRp6
(I3
S'<'
NNNI-1
I-1
I0
tbI00
S'j\xb7\x9c\x82\xf6v\x19?t\xfe\xe2<\x96\x17\xdc?zH%,b"\xe0?'
tbaI0
aF84.913222074508667
a.