(lp1
F-35.45179135524517
acnumpy.core.multiarray
_reconstruct
p2
(cnumpy
ndarray
p3
(I0
tS'b'
tRp4
(I1
(I3
tcnumpy
dtype
p5
(S'f8'
I0
I1
tRp6
(I3
S'<'
NNNI-1
I-1
I0
tbI00
S'N^\xd7\x0f\xec\x0b\xd1?77\x9cC]\x8d\xd7?s|\t\xfd\x01\xb0\xe0?'
tbaI0
aF73.876885890960693
a.