(lp1
F-32.226483447817088
acnumpy.core.multiarray
_reconstruct
p2
(cnumpy
ndarray
p3
(I0
tS'b'
tRp4
(I1
(I3
tcnumpy
dtype
p5
(S'f8'
I0
I1
tRp6
(I3
S'<'
NNNI-1
I-1
I0
tbI00
S'\x7f\x94\xd5\xc8\xa5l\x19?V\xc7t7\xc0U\xd6?\x95\xea\xa2\xe3\xe6[\xe1?'
tbaI0
aF80.763955116271973
a.