(lp1
F-12.711119059335511
acnumpy.core.multiarray
_reconstruct
p2
(cnumpy
ndarray
p3
(I0
tS'b'
tRp4
(I1
(I3
tcnumpy
dtype
p5
(S'f8'
I0
I1
tRp6
(I3
S'<'
NNNI-1
I-1
I0
tbI00
S'\x02D\xf5s\x08m\x19?\x87\xed\x0e\xaeG\x86\xe2?\x91}\x96z\nG\xe0?'
tbaI0
aF73.9551842212677
a.