(lp1
F-59.578027769326894
acnumpy.core.multiarray
_reconstruct
p2
(cnumpy
ndarray
p3
(I0
tS'b'
tRp4
(I1
(I3
tcnumpy
dtype
p5
(S'f8'
I0
I1
tRp6
(I3
S'<'
NNNI-1
I-1
I0
tbI00
S"j\xe3;@\xa0P\xe1?\xeay%5\x8b\x8c\xde?5_\x98wz'\xdb?"
tbaI0
aF79.327564001083374
a.