(lp1
F-50.475203214204235
acnumpy.core.multiarray
_reconstruct
p2
(cnumpy
ndarray
p3
(I0
tS'b'
tRp4
(I1
(I3
tcnumpy
dtype
p5
(S'f8'
I0
I1
tRp6
(I3
S'<'
NNNI-1
I-1
I0
tbI00
S'\xc3\xf5\x98K\xd3[\xdf?\x85\xeb\xd1;\xbc\xe6\xde?\x14\xae\x87\x96\xb3(\xd7?'
tbaI0
aF79.582786798477173
a.