(lp1
F-58.804716808762322
acnumpy.core.multiarray
_reconstruct
p2
(cnumpy
ndarray
p3
(I0
tS'b'
tRp4
(I1
(I3
tcnumpy
dtype
p5
(S'f8'
I0
I1
tRp6
(I3
S'<'
NNNI-1
I-1
I0
tbI00
S'\xaeG\xd1!\xa9\x00\xe3?\xc3\xf5h\xb5M%\xde?\x00\x00\xf0\x08>\xe1\xd6?'
tbaI0
aF68.580233097076416
a.