(lp1
F-56.814295767224728
acnumpy.core.multiarray
_reconstruct
p2
(cnumpy
ndarray
p3
(I0
tS'b'
tRp4
(I1
(I3
tcnumpy
dtype
p5
(S'f8'
I0
I1
tRp6
(I3
S'<'
NNNI-1
I-1
I0
tbI00
S'z\xb7M\'\x1fj\x19?\xfa&"A\xfb\r\xdd?\x87\xfd\xe8\x99\xb0Z\xdb?'
tbaI0
aF70.311968088150024
a.