(lp1
F-27.083402818255138
acnumpy.core.multiarray
_reconstruct
p2
(cnumpy
ndarray
p3
(I0
tS'b'
tRp4
(I1
(I3
tcnumpy
dtype
p5
(S'f8'
I0
I1
tRp6
(I3
S'<'
NNNI-1
I-1
I0
tbI00
S'h\x06\x0e{K\x15\xde?\x072\xc0\x81~\x19\xde?#\xd5X~[w\xd9?'
tbaI0
aF83.632580041885376
a.