(lp1
F-49.79287880649683
acnumpy.core.multiarray
_reconstruct
p2
(cnumpy
ndarray
p3
(I0
tS'b'
tRp4
(I1
(I3
tcnumpy
dtype
p5
(S'f8'
I0
I1
tRp6
(I3
S'<'
NNNI-1
I-1
I0
tbI00
S'\xaf\x8fm5D\x93\xe0?\xab\xc6"\t\xf1\x1e\xdd?\xd3\xd4_\x9b6\xe0\xdd?'
tbaI0
aF93.358988046646118
a.