(lp1
F-52.355717108827889
acnumpy.core.multiarray
_reconstruct
p2
(cnumpy
ndarray
p3
(I0
tS'b'
tRp4
(I1
(I3
tcnumpy
dtype
p5
(S'f8'
I0
I1
tRp6
(I3
S'<'
NNNI-1
I-1
I0
tbI00
S')\xcc\n.\xaa\xc2\x17?\xb7\x8eE\xf1\x94G\xd8?\x15\x90\xef\x91\xac\xec\xde?'
tbaI0
aF81.414628028869629
a.