(lp1
F-71.679043529111937
acnumpy.core.multiarray
_reconstruct
p2
(cnumpy
ndarray
p3
(I0
tS'b'
tRp4
(I1
(I3
tcnumpy
dtype
p5
(S'f8'
I0
I1
tRp6
(I3
S'<'
NNNI-1
I-1
I0
tbI00
S'"yL]\x8fl\x19?N\x15NPV?\xd7?\xf3n\x05\xd6\xaa}\xda?'
tbaI0
aF69.277091979980469
a.