(lp1
F-44.759451509870402
acnumpy.core.multiarray
_reconstruct
p2
(cnumpy
ndarray
p3
(I0
tS'b'
tRp4
(I1
(I3
tcnumpy
dtype
p5
(S'f8'
I0
I1
tRp6
(I3
S'<'
NNNI-1
I-1
I0
tbI00
S'\x13U\xe3\xe53\xf8\x19?\xdc\xd5\x15\x85v5\xdc?\x0c,\x89\xaf\x97\x10\xe1?'
tbaI0
aF84.080270051956177
a.