(lp1
F-34.786649576425525
acnumpy.core.multiarray
_reconstruct
p2
(cnumpy
ndarray
p3
(I0
tS'b'
tRp4
(I1
(I3
tcnumpy
dtype
p5
(S'f8'
I0
I1
tRp6
(I3
S'<'
NNNI-1
I-1
I0
tbI00
S'/\xda\xd92\x86\xb8\xe0?T+T\x85X\x04\xdb?\xb49\xdcX\xcb\xc2\xe0?'
tbaI0
aF82.218405961990356
a.