(lp1
F-41.192636847804458
acnumpy.core.multiarray
_reconstruct
p2
(cnumpy
ndarray
p3
(I0
tS'b'
tRp4
(I1
(I3
tcnumpy
dtype
p5
(S'f8'
I0
I1
tRp6
(I3
S'<'
NNNI-1
I-1
I0
tbI00
S'\xbfwP\xee\xac\xf4\xe6?\xcbf\xb9\xf7\xb3\xa1\xe0?\x02z\xe4H\x8f%\xdd?'
tbaI0
aF70.500599145889282
a.