(lp1
F-40.575359266957683
acnumpy.core.multiarray
_reconstruct
p2
(cnumpy
ndarray
p3
(I0
tS'b'
tRp4
(I1
(I3
tcnumpy
dtype
p5
(S'f8'
I0
I1
tRp6
(I3
S'<'
NNNI-1
I-1
I0
tbI00
S'W%\xfc%\xef\xb4\x03?\xca\xa2Eh\xe3\xb9\xde?\xcb7\n\x82\x9f9\xdf?'
tbaI0
aF78.065958023071289
a.