(lp1
F-33.539552385764537
acnumpy.core.multiarray
_reconstruct
p2
(cnumpy
ndarray
p3
(I0
tS'b'
tRp4
(I1
(I3
tcnumpy
dtype
p5
(S'f8'
I0
I1
tRp6
(I3
S'<'
NNNI-1
I-1
I0
tbI00
S'\xcep\xbf\xbf8\x93\xe6?4\xc7\x8e\x80\x12\x00\xe1?\x00\x8bN\xad3\xf7\xdf?'
tbaI0
aF84.649319887161255
a.