(lp1
F-27.705674872322639
acnumpy.core.multiarray
_reconstruct
p2
(cnumpy
ndarray
p3
(I0
tS'b'
tRp4
(I1
(I3
tcnumpy
dtype
p5
(S'f8'
I0
I1
tRp6
(I3
S'<'
NNNI-1
I-1
I0
tbI00
S'\xdcr=UiP\xdf?\xe2\x9f\x9bj\xcev\xe2?s\n\x1b\xe4\xdb\x92\xd6?'
tbaI0
aF77.984272003173828
a.