(lp1
F-52.664271673838087
acnumpy.core.multiarray
_reconstruct
p2
(cnumpy
ndarray
p3
(I0
tS'b'
tRp4
(I1
(I3
tcnumpy
dtype
p5
(S'f8'
I0
I1
tRp6
(I3
S'<'
NNNI-1
I-1
I0
tbI00
S'\xa3\x98(\x17j\xba\xdd?\xa9\xd0>ol\xba\xdb?\xadT\x87\x17Kv\xdc?'
tbaI0
aF97.619115114212036
a.