(lp1
F-56.51944124754953
acnumpy.core.multiarray
_reconstruct
p2
(cnumpy
ndarray
p3
(I0
tS'b'
tRp4
(I1
(I3
tcnumpy
dtype
p5
(S'f8'
I0
I1
tRp6
(I3
S'<'
NNNI-1
I-1
I0
tbI00
S'F\x8c\xb7y\xd6\x1a\xd9?\x1e!`\x1a\xe8T\xd1?\xca>V\xcc\x1e\xcb\xdf?'
tbaI0
aF78.750018835067749
a.