(lp1
F-47.594291906925712
acnumpy.core.multiarray
_reconstruct
p2
(cnumpy
ndarray
p3
(I0
tS'b'
tRp4
(I1
(I3
tcnumpy
dtype
p5
(S'f8'
I0
I1
tRp6
(I3
S'<'
NNNI-1
I-1
I0
tbI00
S'\xf5\xf8\xb4\xd1\x92o\x19?\x90 \xb2\x05\xb33\xdf?\xd3h\xf8c\xae,\xe0?'
tbaI0
aF89.468991994857788
a.