(lp1
F-57.39216919119184
acnumpy.core.multiarray
_reconstruct
p2
(cnumpy
ndarray
p3
(I0
tS'b'
tRp4
(I1
(I3
tcnumpy
dtype
p5
(S'f8'
I0
I1
tRp6
(I3
S'<'
NNNI-1
I-1
I0
tbI00
S'\xe1z\x14S\x0e\x04\xca?=\n\xa7\xbe\x95\xf0\xd2?\\\x8f2\xab\xb1\x9f\xdb?'
tbaI0
aF76.412765979766846
a.