(lp1
F-36.760264255803271
acnumpy.core.multiarray
_reconstruct
p2
(cnumpy
ndarray
p3
(I0
tS'b'
tRp4
(I1
(I3
tcnumpy
dtype
p5
(S'f8'
I0
I1
tRp6
(I3
S'<'
NNNI-1
I-1
I0
tbI00
S'\x16\x1f\x8fS\x01\xaf\xe0?\x1aW\xe1\n\xf4`\xdf?\xb4\x07\xe9v\x8b\x99\xd9?'
tbaI0
aF78.274650096893311
a.