(lp1
F-44.357599640408274
acnumpy.core.multiarray
_reconstruct
p2
(cnumpy
ndarray
p3
(I0
tS'b'
tRp4
(I1
(I3
tcnumpy
dtype
p5
(S'f8'
I0
I1
tRp6
(I3
S'<'
NNNI-1
I-1
I0
tbI00
S'\xd1\xe6\x90o^\x00\xe1?\x91\xd8\xc7\xf2\x028\xe0?\x82$=\x0c\xa3\r\xe0?'
tbaI0
aF75.472621917724609
a.