(lp1
F-37.607175712846143
acnumpy.core.multiarray
_reconstruct
p2
(cnumpy
ndarray
p3
(I0
tS'b'
tRp4
(I1
(I3
tcnumpy
dtype
p5
(S'f8'
I0
I1
tRp6
(I3
S'<'
NNNI-1
I-1
I0
tbI00
S'o88\xa7\xf8i\x19?}K\xa6K\x12_\xde?x$\x94(\xd2R\xdd?'
tbaI0
aF75.786726951599121
a.