(lp1
F-29.83628801924359
acnumpy.core.multiarray
_reconstruct
p2
(cnumpy
ndarray
p3
(I0
tS'b'
tRp4
(I1
(I3
tcnumpy
dtype
p5
(S'f8'
I0
I1
tRp6
(I3
S'<'
NNNI-1
I-1
I0
tbI00
S'}\xb3n7A\xec\xd7? \x06g\x01\\F\xd9?\x84\x80\xc1\x83\xf4\x8f\xdf?'
tbaI0
aF73.566612958908081
a.