(lp1
F-34.899209475531315
acnumpy.core.multiarray
_reconstruct
p2
(cnumpy
ndarray
p3
(I0
tS'b'
tRp4
(I1
(I3
tcnumpy
dtype
p5
(S'f8'
I0
I1
tRp6
(I3
S'<'
NNNI-1
I-1
I0
tbI00
S'A\xc3\xd9\\4\x02\xde?\x029\xec\xf1\xf2\xa6\xdf?\xb6k\x871\x9cH\xe0?'
tbaI0
aF71.148052930831909
a.