(lp1
F-48.673019472273971
acnumpy.core.multiarray
_reconstruct
p2
(cnumpy
ndarray
p3
(I0
tS'b'
tRp4
(I1
(I3
tcnumpy
dtype
p5
(S'f8'
I0
I1
tRp6
(I3
S'<'
NNNI-1
I-1
I0
tbI00
S'\xc2\x85\x1e\x08\xe1\xff\xef?QF\xfcH\xdd\xb0\xdf?x\xa81\xb7\x92H\xd9?'
tbaI0
aF82.463320970535278
a.