(lp1
F-49.809629147951362
acnumpy.core.multiarray
_reconstruct
p2
(cnumpy
ndarray
p3
(I0
tS'b'
tRp4
(I1
(I3
tcnumpy
dtype
p5
(S'f8'
I0
I1
tRp6
(I3
S'<'
NNNI-1
I-1
I0
tbI00
S'\xef\xf9\xe8f\x11\x95\xd4?\xc3\x7fQh\x9b\xc1\xd8?\x8b\x00\x9b:<\xf6\xe1?'
tbaI0
aF86.369187116622925
a.