(lp1
F-35.450496972414996
acnumpy.core.multiarray
_reconstruct
p2
(cnumpy
ndarray
p3
(I0
tS'b'
tRp4
(I1
(I3
tcnumpy
dtype
p5
(S'f8'
I0
I1
tRp6
(I3
S'<'
NNNI-1
I-1
I0
tbI00
S'+\xba\x07t\x08\xc9\xe6?)\\)\xa7\x86\x84\xe2?\xd2z\x852\xfd2\xdc?'
tbaI0
aF82.565114974975586
a.