(lp1
F-2.2334679568998216e+21
acnumpy.core.multiarray
_reconstruct
p2
(cnumpy
ndarray
p3
(I0
tS'b'
tRp4
(I1
(I3
tcnumpy
dtype
p5
(S'f8'
I0
I1
tRp6
(I3
S'<'
NNNI-1
I-1
I0
tbI00
S'3$\xdf\xfbM"\xdc?\xae\xde\x87\xfdE\x0b\xd6?\xaa\x96\x80\xaa:\xe1\xdb?'
tbaI0
aF22.049448013305664
a.