(lp1
F-64.02983642395057
acnumpy.core.multiarray
_reconstruct
p2
(cnumpy
ndarray
p3
(I0
tS'b'
tRp4
(I1
(I3
tcnumpy
dtype
p5
(S'f8'
I0
I1
tRp6
(I3
S'<'
NNNI-1
I-1
I0
tbI00
S'\xc3\xf5X\xddM=\xd6?{\x14\xc6\xd2\xbf+\xe0?\n\xd73~\xb3=\xda?'
tbaI0
aF88.003815889358521
a.