(lp1
F-28.414076673561404
acnumpy.core.multiarray
_reconstruct
p2
(cnumpy
ndarray
p3
(I0
tS'b'
tRp4
(I1
(I3
tcnumpy
dtype
p5
(S'f8'
I0
I1
tRp6
(I3
S'<'
NNNI-1
I-1
I0
tbI00
S'/2\xc1/\xf2#\xe3?4$\x8eo\x05\xf5\xdd?\xbb\xe0\xa4g!!\xde?'
tbaI0
aF87.84120512008667
a.