(lp1
F-7710797675587835
acnumpy.core.multiarray
_reconstruct
p2
(cnumpy
ndarray
p3
(I0
tS'b'
tRp4
(I1
(I3
tcnumpy
dtype
p5
(S'f8'
I0
I1
tRp6
(I3
S'<'
NNNI-1
I-1
I0
tbI00
S'\x1c\xfd],[\x87\xd7?\x03\xc2\xb9\xc1\x16\xe5\xdc?\x18\x03\xd6J\x03/\xe0?'
tbaI0
aF23.63573694229126
a.