(lp1
F-15.289092465118189
acnumpy.core.multiarray
_reconstruct
p2
(cnumpy
ndarray
p3
(I0
tS'b'
tRp4
(I1
(I3
tcnumpy
dtype
p5
(S'f8'
I0
I1
tRp6
(I3
S'<'
NNNI-1
I-1
I0
tbI00
S'\xe1\xe7\x98U\xa5\xab\x17?8\xf7!I\xfe\xbf\xdc?\xe9\xe0/\x9c!\x16\xde?'
tbaI0
aF87.408627033233643
a.