(lp1
F-2.3131023389372901e+26
acnumpy.core.multiarray
_reconstruct
p2
(cnumpy
ndarray
p3
(I0
tS'b'
tRp4
(I1
(I3
tcnumpy
dtype
p5
(S'f8'
I0
I1
tRp6
(I3
S'<'
NNNI-1
I-1
I0
tbI00
S'>\x9f\x87y\xef\xf1\xd7?U\x87\xeb\x86S\xc8\xe0?\xf6\xf9l\x7f\xb4\x10\xdc?'
tbaI0
aF24.37645411491394
a.