(lp1
F-2.6694887367871415e+21
acnumpy.core.multiarray
_reconstruct
p2
(cnumpy
ndarray
p3
(I0
tS'b'
tRp4
(I1
(I3
tcnumpy
dtype
p5
(S'f8'
I0
I1
tRp6
(I3
S'<'
NNNI-1
I-1
I0
tbI00
S'"G\x97\xb5hj\xeb?\xc3\xd5m\x12\xe5=\xdd?\x96\xfa\x11\x90+ \xde?'
tbaI0
aF23.538249015808105
a.