(lp1
F-39.321412833524228
acnumpy.core.multiarray
_reconstruct
p2
(cnumpy
ndarray
p3
(I0
tS'b'
tRp4
(I1
(I3
tcnumpy
dtype
p5
(S'f8'
I0
I1
tRp6
(I3
S'<'
NNNI-1
I-1
I0
tbI00
S'Oo\xe9\x0b\x9do\xe2?\xd7\xae\xf3\xc5\x14]\xe1?\x9b\xf1?\xdc1-\xce?'
tbaI0
aF89.050965070724487
a.