(lp1
F-51.739268786500361
acnumpy.core.multiarray
_reconstruct
p2
(cnumpy
ndarray
p3
(I0
tS'b'
tRp4
(I1
(I3
tcnumpy
dtype
p5
(S'f8'
I0
I1
tRp6
(I3
S'<'
NNNI-1
I-1
I0
tbI00
S'=\n\xdf(\xe6\x7f\xe6?\x8f\xc2\xa5\x9d\xee\xa3\xe1?\xecQ\xb8\xb97o\xc3?'
tbaI0
aF86.848585844039917
a.