(lp1
F-36.339463175332433
acnumpy.core.multiarray
_reconstruct
p2
(cnumpy
ndarray
p3
(I0
tS'b'
tRp4
(I1
(I3
tcnumpy
dtype
p5
(S'f8'
I0
I1
tRp6
(I3
S'<'
NNNI-1
I-1
I0
tbI00
S'H\x1a\xf03}\xbe\xe6?\x1d\xb4\xa5\xa5\x89.\xe0??s7\xd8\x14\xa9\xdc?'
tbaI0
aF86.393508195877075
a.