(lp1
F-59.586447781567053
acnumpy.core.multiarray
_reconstruct
p2
(cnumpy
ndarray
p3
(I0
tS'b'
tRp4
(I1
(I3
tcnumpy
dtype
p5
(S'f8'
I0
I1
tRp6
(I3
S'<'
NNNI-1
I-1
I0
tbI00
S'\xb4\xd2\xfc\xad\xd8\xb2\xe3?\xfa\x8c\xefU\xe6\xa6\xe0?\xbd\x7fz\xce!G\xd4?'
tbaI0
aF89.750379085540771
a.