(lp1
F-3.0546223584165465e+23
acnumpy.core.multiarray
_reconstruct
p2
(cnumpy
ndarray
p3
(I0
tS'b'
tRp4
(I1
(I3
tcnumpy
dtype
p5
(S'f8'
I0
I1
tRp6
(I3
S'<'
NNNI-1
I-1
I0
tbI00
S'\xd5\x81\x07?\xdc\xef\xd8?\xceA\xb4\xab<s\xd4?q\x1e\x03\xb3C9\xde?'
tbaI0
aF22.409819841384888
a.