(lp1
F-1527812330.6353545
acnumpy.core.multiarray
_reconstruct
p2
(cnumpy
ndarray
p3
(I0
tS'b'
tRp4
(I1
(I3
tcnumpy
dtype
p5
(S'f8'
I0
I1
tRp6
(I3
S'<'
NNNI-1
I-1
I0
tbI00
S'\xc6\x1c\xd2c\xa5\xc0\xb2?\xd5t\n\x99\x93U\xde?\xd0\xb3\x98\xc3+\xb7\xdc?'
tbaI0
aF22.409984111785889
a.