(lp1
F-55.689812646213234
acnumpy.core.multiarray
_reconstruct
p2
(cnumpy
ndarray
p3
(I0
tS'b'
tRp4
(I1
(I3
tcnumpy
dtype
p5
(S'f8'
I0
I1
tRp6
(I3
S'<'
NNNI-1
I-1
I0
tbI00
S'_@Q\xad\xff\x7f\xe4?g\x0c\xaa-\xb2\xa8\xd6?XX\x90M\xf0\\\xde?'
tbaI0
aF86.277962207794189
a.