(lp1
F-71662496615577152
acnumpy.core.multiarray
_reconstruct
p2
(cnumpy
ndarray
p3
(I0
tS'b'
tRp4
(I1
(I3
tcnumpy
dtype
p5
(S'f8'
I0
I1
tRp6
(I3
S'<'
NNNI-1
I-1
I0
tbI00
S'\xc7?z\x9dZ^\xe5?\x16\xa6 l\x83E\xe0?\xfc\x08r\xae\x94\x1d\xdc?'
tbaI0
aF22.185393095016479
a.