(lp1
F-25.926896541684066
acnumpy.core.multiarray
_reconstruct
p2
(cnumpy
ndarray
p3
(I0
tS'b'
tRp4
(I1
(I3
tcnumpy
dtype
p5
(S'f8'
I0
I1
tRp6
(I3
S'<'
NNNI-1
I-1
I0
tbI00
S'y\xfb\xc9^\xe4;\xde?\x17\x1f\x86V%0\xe0?\x97\x11\x9b\x81+K\xdc?'
tbaI0
aF87.583648920059204
a.