(lp1
F-1.277142687218603e+19
acnumpy.core.multiarray
_reconstruct
p2
(cnumpy
ndarray
p3
(I0
tS'b'
tRp4
(I1
(I3
tcnumpy
dtype
p5
(S'f8'
I0
I1
tRp6
(I3
S'<'
NNNI-1
I-1
I0
tbI00
S'\xa1\xa5\xbf\xcf2i\xee?\xff\x94\xde\x06\xaex\xe1?\x8a\x8a\xd0[\x10\xdb\xdb?'
tbaI0
aF23.223366022109985
a.