(lp1
F-4.7782844336215404e+22
acnumpy.core.multiarray
_reconstruct
p2
(cnumpy
ndarray
p3
(I0
tS'b'
tRp4
(I1
(I3
tcnumpy
dtype
p5
(S'f8'
I0
I1
tRp6
(I3
S'<'
NNNI-1
I-1
I0
tbI00
S'\x8a\xf8\x07\xa3gV\xe7?EF\xafW{\x1e\xe0?\\l\xd3\x98-?\xd5?'
tbaI0
aF22.001491069793701
a.