(lp1
F-2.1419312653701385e+20
acnumpy.core.multiarray
_reconstruct
p2
(cnumpy
ndarray
p3
(I0
tS'b'
tRp4
(I1
(I3
tcnumpy
dtype
p5
(S'f8'
I0
I1
tRp6
(I3
S'<'
NNNI-1
I-1
I0
tbI00
S'um\\\x1d#\r\xd2?\x15\x88N-\x048\xd7?\x14\x1bq\xca\n\x1d\xdd?'
tbaI0
aF22.704614877700806
a.