(lp1
F-1.312049189706394e+19
acnumpy.core.multiarray
_reconstruct
p2
(cnumpy
ndarray
p3
(I0
tS'b'
tRp4
(I1
(I3
tcnumpy
dtype
p5
(S'f8'
I0
I1
tRp6
(I3
S'<'
NNNI-1
I-1
I0
tbI00
S"g\xaa\xf0#\xf70\xe4?\x88mj\x1b^\xb9\xdb?\xb4'7\x81\xcc\x9b\xde?"
tbaI0
aF22.551177024841309
a.