(lp1
F-1.802139812713956e+24
acnumpy.core.multiarray
_reconstruct
p2
(cnumpy
ndarray
p3
(I0
tS'b'
tRp4
(I1
(I3
tcnumpy
dtype
p5
(S'f8'
I0
I1
tRp6
(I3
S'<'
NNNI-1
I-1
I0
tbI00
S'\x02\xadZ\x9csF\xe2?\x19\xa7\x8d!#\xcf\xd3?v\xa2\xed\xa7)~\xdf?'
tbaI0
aF22.073919057846069
a.