(lp1
F-55.041730644583616
acnumpy.core.multiarray
_reconstruct
p2
(cnumpy
ndarray
p3
(I0
tS'b'
tRp4
(I1
(I3
tcnumpy
dtype
p5
(S'f8'
I0
I1
tRp6
(I3
S'<'
NNNI-1
I-1
I0
tbI00
S'Z\xa54\xec\xee~\xca?\xd4\xd5./v\x0f\xe2?\xea\xb2$\xcf\xbaE\xcf?'
tbaI0
aF90.829160928726196
a.