(lp1
F-1.3068921620199936e+18
acnumpy.core.multiarray
_reconstruct
p2
(cnumpy
ndarray
p3
(I0
tS'b'
tRp4
(I1
(I3
tcnumpy
dtype
p5
(S'f8'
I0
I1
tRp6
(I3
S'<'
NNNI-1
I-1
I0
tbI00
S';\x1c<\x950\xb9\xe5?\t\xadC`\x9a\x04\xe2?\x80+_\x97\xa5\x9c\xd3?'
tbaI0
aF22.427350997924805
a.