(lp1
F-51.417846876209182
acnumpy.core.multiarray
_reconstruct
p2
(cnumpy
ndarray
p3
(I0
tS'b'
tRp4
(I1
(I3
tcnumpy
dtype
p5
(S'f8'
I0
I1
tRp6
(I3
S'<'
NNNI-1
I-1
I0
tbI00
S"\x15\xef\xee'\xa0\x93\xe2?\xc6f}\x10\xab\xf6\xe1?q\xe0y\xf0\xf7Z\xd9?"
tbaI0
aF89.70519495010376
a.