(lp1
F-49.941026241677882
acnumpy.core.multiarray
_reconstruct
p2
(cnumpy
ndarray
p3
(I0
tS'b'
tRp4
(I1
(I3
tcnumpy
dtype
p5
(S'f8'
I0
I1
tRp6
(I3
S'<'
NNNI-1
I-1
I0
tbI00
S'\xf3\xe4\x1aO\xf6\x07\xe8?T\x93}\x05\xc8f\xdd?!5t\x8a\xd5\x93\xd7?'
tbaI0
aF87.21299409866333
a.