(lp1
F-4833412393425217
acnumpy.core.multiarray
_reconstruct
p2
(cnumpy
ndarray
p3
(I0
tS'b'
tRp4
(I1
(I3
tcnumpy
dtype
p5
(S'f8'
I0
I1
tRp6
(I3
S'<'
NNNI-1
I-1
I0
tbI00
S"G\xf0c\xa4\xa2\xfe\xde?\xea\xa6r\x1b 9\xde?'\x99\xd3B\xa9\xa6\xdf?"
tbaI0
aF23.234338998794556
a.