(lp1
F-3.8219699671071386e+31
acnumpy.core.multiarray
_reconstruct
p2
(cnumpy
ndarray
p3
(I0
tS'b'
tRp4
(I1
(I3
tcnumpy
dtype
p5
(S'f8'
I0
I1
tRp6
(I3
S'<'
NNNI-1
I-1
I0
tbI00
S'\xe2Rf\xa3\xf4\x10\xdd?G\xa8\x8b\x14\x93\xe1\xd7?\xff1\xcciP`\xd8?'
tbaI0
aF23.405685901641846
a.