(lp1
F-25.375256002451707
acnumpy.core.multiarray
_reconstruct
p2
(cnumpy
ndarray
p3
(I0
tS'b'
tRp4
(I1
(I3
tcnumpy
dtype
p5
(S'f8'
I0
I1
tRp6
(I3
S'<'
NNNI-1
I-1
I0
tbI00
S'\x84K<\xd7\xa4/\xe3?\x04\xa2\xb8\x15\x88\x81\xe1?\xa2\x0f\xb5}\xa6\xb2\xd9?'
tbaI0
aF91.356613874435425
a.