(lp1
F-1.1933760189107691e+17
acnumpy.core.multiarray
_reconstruct
p2
(cnumpy
ndarray
p3
(I0
tS'b'
tRp4
(I1
(I3
tcnumpy
dtype
p5
(S'f8'
I0
I1
tRp6
(I3
S'<'
NNNI-1
I-1
I0
tbI00
S'\xcf\xd5\xad\xd7\x95z\xc5?\x81\x1e\x9e$h\xaa\xdf?\xae\xdeS`\x99E\xd2?'
tbaI0
aF22.525717973709106
a.