(lp1
F-1.9268894246978699e+26
acnumpy.core.multiarray
_reconstruct
p2
(cnumpy
ndarray
p3
(I0
tS'b'
tRp4
(I1
(I3
tcnumpy
dtype
p5
(S'f8'
I0
I1
tRp6
(I3
S'<'
NNNI-1
I-1
I0
tbI00
S'\x1c\xbe+k\x11q\xe3?|\xf5Q:\x8e\xdd\xe0?\x12\x88`&\t\xff\xd3?'
tbaI0
aF24.1806800365448
a.