(lp1
F-5.3886658960903184e+21
acnumpy.core.multiarray
_reconstruct
p2
(cnumpy
ndarray
p3
(I0
tS'b'
tRp4
(I1
(I3
tcnumpy
dtype
p5
(S'f8'
I0
I1
tRp6
(I3
S'<'
NNNI-1
I-1
I0
tbI00
S'\xf7Me\xc0L\xde\xe0?\xfb\x03\x89\x98\xeb\xdc\xde?\xb7K\x19\xa9\xc8J\xdc?'
tbaI0
aF22.702245950698853
a.