(lp1
F-2.6613556461380253e+17
acnumpy.core.multiarray
_reconstruct
p2
(cnumpy
ndarray
p3
(I0
tS'b'
tRp4
(I1
(I3
tcnumpy
dtype
p5
(S'f8'
I0
I1
tRp6
(I3
S'<'
NNNI-1
I-1
I0
tbI00
S'jQS(\x9a\xf9\xda?y\x92\x07k\x89u\xdc?\xbe\xa5\x82\xcd6X\xd9?'
tbaI0
aF23.215667963027954
a.