(lp1
F-63.642408201972032
acnumpy.core.multiarray
_reconstruct
p2
(cnumpy
ndarray
p3
(I0
tS'b'
tRp4
(I1
(I3
tcnumpy
dtype
p5
(S'f8'
I0
I1
tRp6
(I3
S'<'
NNNI-1
I-1
I0
tbI00
S'm\x90\xc0-\x82\x14\x1a?,\xe7\x9a-\xf2\xf1\xd7?\xb4\xfb\xf4]0\x16\xdd?'
tbaI0
aF85.639858961105347
a.