(lp1
F-9.1195338021976976e+22
acnumpy.core.multiarray
_reconstruct
p2
(cnumpy
ndarray
p3
(I0
tS'b'
tRp4
(I1
(I3
tcnumpy
dtype
p5
(S'f8'
I0
I1
tRp6
(I3
S'<'
NNNI-1
I-1
I0
tbI00
S'v\x19\x81\x0b\xa3q\xce?0\to\xd2\x0e\xf1\xd9?\xf8\xf8\x1d\xc5(\xa3\xde?'
tbaI0
aF22.471009969711304
a.