(lp1
F-119694990926756.41
acnumpy.core.multiarray
_reconstruct
p2
(cnumpy
ndarray
p3
(I0
tS'b'
tRp4
(I1
(I3
tcnumpy
dtype
p5
(S'f8'
I0
I1
tRp6
(I3
S'<'
NNNI-1
I-1
I0
tbI00
S'\x03\xfa\x11P1\xc7\xbf?\xf3\x84d>\xd2\x98\xd3?\xa1-\xa7+\n\r\xe1?'
tbaI0
aF21.975193023681641
a.