(lp1
F-2.1881928299600664e+22
acnumpy.core.multiarray
_reconstruct
p2
(cnumpy
ndarray
p3
(I0
tS'b'
tRp4
(I1
(I3
tcnumpy
dtype
p5
(S'f8'
I0
I1
tRp6
(I3
S'<'
NNNI-1
I-1
I0
tbI00
S'(~\xbd+\xb8\xae\xe4?\xe2dXdYU\xdf?\x1cJ\xc0\xc1\xc8f\xd3?'
tbaI0
aF22.418998003005981
a.