(lp1
F-35.321312320250911
acnumpy.core.multiarray
_reconstruct
p2
(cnumpy
ndarray
p3
(I0
tS'b'
tRp4
(I1
(I3
tcnumpy
dtype
p5
(S'f8'
I0
I1
tRp6
(I3
S'<'
NNNI-1
I-1
I0
tbI00
S'\n\xd7C\x1d\xf4\xc5\xc3?=\n7\x8a\x18\x07\xdd?\xe1zD\xf00\x0c\xdf?'
tbaI0
aF88.198276996612549
a.