(lp1
F-33.022789611174723
acnumpy.core.multiarray
_reconstruct
p2
(cnumpy
ndarray
p3
(I0
tS'b'
tRp4
(I1
(I3
tcnumpy
dtype
p5
(S'f8'
I0
I1
tRp6
(I3
S'<'
NNNI-1
I-1
I0
tbI00
S'\xfb%A\xfb\xeee\x19?Bcj\x11lc\xd9?g\x89>\x13\xdb\t\xdf?'
tbaI0
aF86.93674111366272
a.