(lp1
F-53.367295966693902
acnumpy.core.multiarray
_reconstruct
p2
(cnumpy
ndarray
p3
(I0
tS'b'
tRp4
(I1
(I3
tcnumpy
dtype
p5
(S'f8'
I0
I1
tRp6
(I3
S'<'
NNNI-1
I-1
I0
tbI00
S'0\x8b\x8b\xb6\x91M\x19?%5\xd4\xeb|\xf8\xdb?\x06\xaa\x050\x00\xed\xdc?'
tbaI0
aF93.334095001220703
a.