(lp1
F-2.2994061784207282e+28
acnumpy.core.multiarray
_reconstruct
p2
(cnumpy
ndarray
p3
(I0
tS'b'
tRp4
(I1
(I3
tcnumpy
dtype
p5
(S'f8'
I0
I1
tRp6
(I3
S'<'
NNNI-1
I-1
I0
tbI00
S'\xa5/6\xa5\xa9`\xcf?\x9aFx\xcf\x99\xe2\xdf?2\xc2\x061\xb1u\xd3?'
tbaI0
aF22.247452974319458
a.