(lp1
F-1.1728611648081456e+25
acnumpy.core.multiarray
_reconstruct
p2
(cnumpy
ndarray
p3
(I0
tS'b'
tRp4
(I1
(I3
tcnumpy
dtype
p5
(S'f8'
I0
I1
tRp6
(I3
S'<'
NNNI-1
I-1
I0
tbI00
S'R\x17C\r,u\xe6?\xff}\x9f,\x9f\x8e\xe0?\xf1\xa4\xb6)fa\xd5?'
tbaI0
aF22.300655841827393
a.