(lp1
F-3.0452823145010873e+25
acnumpy.core.multiarray
_reconstruct
p2
(cnumpy
ndarray
p3
(I0
tS'b'
tRp4
(I1
(I3
tcnumpy
dtype
p5
(S'f8'
I0
I1
tRp6
(I3
S'<'
NNNI-1
I-1
I0
tbI00
S'C\xd8\x95k\x1d\x86\xe1?\xff$P\xa6\xf0(\xd7?y\xee \xb3\x9e\xf6\xdd?'
tbaI0
aF22.190847158432007
a.