(lp1
F-1.1953835605788616e+28
acnumpy.core.multiarray
_reconstruct
p2
(cnumpy
ndarray
p3
(I0
tS'b'
tRp4
(I1
(I3
tcnumpy
dtype
p5
(S'f8'
I0
I1
tRp6
(I3
S'<'
NNNI-1
I-1
I0
tbI00
S'\xb7\xb6?j\\\xd6\xc3?\xea\xa6\xbfJ\xe5\xbf\xda?;\x81ud=%\xdc?'
tbaI0
aF22.326641082763672
a.