(lp1
F-6.3815580813977034e+23
acnumpy.core.multiarray
_reconstruct
p2
(cnumpy
ndarray
p3
(I0
tS'b'
tRp4
(I1
(I3
tcnumpy
dtype
p5
(S'f8'
I0
I1
tRp6
(I3
S'<'
NNNI-1
I-1
I0
tbI00
S'\xce\xe2k\xab#\x89\xe0?\xd8\xdd\xcc\xccD9\xda?\xa0\xcf\xf6\xbf\x90\xb0\xdc?'
tbaI0
aF22.385801076889038
a.