(lp1
F-28.30925302581484
acnumpy.core.multiarray
_reconstruct
p2
(cnumpy
ndarray
p3
(I0
tS'b'
tRp4
(I1
(I3
tcnumpy
dtype
p5
(S'f8'
I0
I1
tRp6
(I3
S'<'
NNNI-1
I-1
I0
tbI00
S'\xe85\xfc\xd3\xd9z\xe3?\xdc\xd3\xcfQ\xc8A\xdb?\xba\x0f\x04\x1a\x12I\xe2?'
tbaI0
aF87.370306015014648
a.