(lp1
F-52.462532326302451
acnumpy.core.multiarray
_reconstruct
p2
(cnumpy
ndarray
p3
(I0
tS'b'
tRp4
(I1
(I3
tcnumpy
dtype
p5
(S'f8'
I0
I1
tRp6
(I3
S'<'
NNNI-1
I-1
I0
tbI00
S'M\xc6\xc2\xa5\xc9b\x19?\xe3\xb4\x1f\xdb\xc2\xd0\xd9?\xd2C\x00j\xd8\xd1\xde?'
tbaI0
aF86.853268146514893
a.