(lp1
F-1805812929758162
acnumpy.core.multiarray
_reconstruct
p2
(cnumpy
ndarray
p3
(I0
tS'b'
tRp4
(I1
(I3
tcnumpy
dtype
p5
(S'f8'
I0
I1
tRp6
(I3
S'<'
NNNI-1
I-1
I0
tbI00
S"\xb8\xde+I\xb1\x05\xc7?\xd7t\x16\xfb\x96\xa5\xdc?\x0c\xe1\xf3\xb2\x18'\xdf?"
tbaI0
aF21.836274862289429
a.