(lp1
F-53.026138190996186
acnumpy.core.multiarray
_reconstruct
p2
(cnumpy
ndarray
p3
(I0
tS'b'
tRp4
(I1
(I3
tcnumpy
dtype
p5
(S'f8'
I0
I1
tRp6
(I3
S'<'
NNNI-1
I-1
I0
tbI00
S'(2\xc5-\xb8\x01\xc8?m\xc5)m\x8bo\xe0?\xd2\x00\xc6\x00\x04\xb1\xd8?'
tbaI0
aF87.695641040802002
a.