(lp1
F-1.201263581220314e+28
acnumpy.core.multiarray
_reconstruct
p2
(cnumpy
ndarray
p3
(I0
tS'b'
tRp4
(I1
(I3
tcnumpy
dtype
p5
(S'f8'
I0
I1
tRp6
(I3
S'<'
NNNI-1
I-1
I0
tbI00
S'\xec,\xecc8\x14\xd7?d\xe8[r\xb9\x9b\xe1?\x8e\xfdWT\xe9\x9e\xd4?'
tbaI0
aF22.557300090789795
a.