(lp1
F-57.48769324203662
acnumpy.core.multiarray
_reconstruct
p2
(cnumpy
ndarray
p3
(I0
tS'b'
tRp4
(I1
(I3
tcnumpy
dtype
p5
(S'f8'
I0
I1
tRp6
(I3
S'<'
NNNI-1
I-1
I0
tbI00
S'\xd51\xbf\xcd\te\x19?\x176e\xbd\xdcb\xdc?\xbfql\x04\x95\xe4\xdd?'
tbaI0
aF87.119100093841553
a.