(lp1
F-5136855690918.3516
acnumpy.core.multiarray
_reconstruct
p2
(cnumpy
ndarray
p3
(I0
tS'b'
tRp4
(I1
(I3
tcnumpy
dtype
p5
(S'f8'
I0
I1
tRp6
(I3
S'<'
NNNI-1
I-1
I0
tbI00
S'Xx\x1a3<\x01\xe0?\xffZ\x80\xa5\xc4s\xd7?\xa1_\xb9L\xaf"\xe1?'
tbaI0
aF22.3475182056427
a.