(lp1
F-51.470218454643302
acnumpy.core.multiarray
_reconstruct
p2
(cnumpy
ndarray
p3
(I0
tS'b'
tRp4
(I1
(I3
tcnumpy
dtype
p5
(S'f8'
I0
I1
tRp6
(I3
S'<'
NNNI-1
I-1
I0
tbI00
S'W\xd0\xcc\xeff\x9a\xde?mz\xdd\x101~\xdf?\x84\xbc0\x17\xd9\xf4\xd8?'
tbaI0
aF86.520836114883423
a.