(lp1
F-6.5373296756464362e+24
acnumpy.core.multiarray
_reconstruct
p2
(cnumpy
ndarray
p3
(I0
tS'b'
tRp4
(I1
(I3
tcnumpy
dtype
p5
(S'f8'
I0
I1
tRp6
(I3
S'<'
NNNI-1
I-1
I0
tbI00
S'\x98\xbd%D;|\xe3?\xb98\xe4Q\x912\xe1?\xbe\x04V\xcc\x0c\xf7\xd5?'
tbaI0
aF22.965213060379028
a.