(lp1
F-57.507506081821909
acnumpy.core.multiarray
_reconstruct
p2
(cnumpy
ndarray
p3
(I0
tS'b'
tRp4
(I1
(I3
tcnumpy
dtype
p5
(S'f8'
I0
I1
tRp6
(I3
S'<'
NNNI-1
I-1
I0
tbI00
S'\\\x8f"T\x1d\xec\xe3?H\xe1\x9a,\x9f\x8e\xe0?R\xb8\xae)fa\xd5?'
tbaI0
aF86.531547069549561
a.