(lp1
F-43.929144810159052
acnumpy.core.multiarray
_reconstruct
p2
(cnumpy
ndarray
p3
(I0
tS'b'
tRp4
(I1
(I3
tcnumpy
dtype
p5
(S'f8'
I0
I1
tRp6
(I3
S'<'
NNNI-1
I-1
I0
tbI00
S'\x07\xdc\xab\x83\xd8\xff\xef?\x91y\xc5\x96\xa7\xfa\xe1?\x87\xb4{<R\x14\xd2?'
tbaI0
aF86.503899812698364
a.