(lp1
F-10630846579036.953
acnumpy.core.multiarray
_reconstruct
p2
(cnumpy
ndarray
p3
(I0
tS'b'
tRp4
(I1
(I3
tcnumpy
dtype
p5
(S'f8'
I0
I1
tRp6
(I3
S'<'
NNNI-1
I-1
I0
tbI00
S'\xf4Q+\xfbK\xd2\xde?\x08\x1ay\xba\x075\xdb?Q\xe5\x9ey\xee|\xdb?'
tbaI0
aF22.367477178573608
a.