(lp1
F-2.0202575013031586e+21
acnumpy.core.multiarray
_reconstruct
p2
(cnumpy
ndarray
p3
(I0
tS'b'
tRp4
(I1
(I3
tcnumpy
dtype
p5
(S'f8'
I0
I1
tRp6
(I3
S'<'
NNNI-1
I-1
I0
tbI00
S'\xdb\xf0*\xa3(\x16\xe0?@\x13/\x8cw\x05\xdf?\xa3\xd3\xa2S\xd0\xc6\xd8?'
tbaI0
aF22.495117902755737
a.