(lp1
F-1.3707849367402614e+22
acnumpy.core.multiarray
_reconstruct
p2
(cnumpy
ndarray
p3
(I0
tS'b'
tRp4
(I1
(I3
tcnumpy
dtype
p5
(S'f8'
I0
I1
tRp6
(I3
S'<'
NNNI-1
I-1
I0
tbI00
S'~ZL\xd0\xc1\xf6\xe0?Js\xe8\xfc^I\xdc?\xee\xd3a\xb8\x00\xfa\xde?'
tbaI0
aF22.700311899185181
a.