(lp1
F-1.5864614455693579e+22
acnumpy.core.multiarray
_reconstruct
p2
(cnumpy
ndarray
p3
(I0
tS'b'
tRp4
(I1
(I3
tcnumpy
dtype
p5
(S'f8'
I0
I1
tRp6
(I3
S'<'
NNNI-1
I-1
I0
tbI00
S'e\x96\xe6\xcb\x0e\t\xea?}{\xd2\xd1k\xee\xe0?@\xd5\xd1\xb9L$\xd4?'
tbaI0
aF22.246968030929565
a.