(lp1
F-20.613056185320172
acnumpy.core.multiarray
_reconstruct
p2
(cnumpy
ndarray
p3
(I0
tS'b'
tRp4
(I1
(I3
tcnumpy
dtype
p5
(S'f8'
I0
I1
tRp6
(I3
S'<'
NNNI-1
I-1
I0
tbI00
S'\xf6(\xdc\xaf"\x9f\xb6?\xa4p=\xdd\xcc%\xd8?\xd7\xa3(\x87\xeaR\xe0?'
tbaI0
aF87.635510206222534
a.