(lp1
F-3.4706958727321071e+21
acnumpy.core.multiarray
_reconstruct
p2
(cnumpy
ndarray
p3
(I0
tS'b'
tRp4
(I1
(I3
tcnumpy
dtype
p5
(S'f8'
I0
I1
tRp6
(I3
S'<'
NNNI-1
I-1
I0
tbI00
S'\xb4\xfd\r4\xb0~\xe5?#E[\xf7\xe3\x89\xd5?g`U\xaf)\xfb\xde?'
tbaI0
aF22.364529132843018
a.