(lp1
F-69.852428532006812
acnumpy.core.multiarray
_reconstruct
p2
(cnumpy
ndarray
p3
(I0
tS'b'
tRp4
(I1
(I3
tcnumpy
dtype
p5
(S'f8'
I0
I1
tRp6
(I3
S'<'
NNNI-1
I-1
I0
tbI00
S'\xc5\x8f\xfaH\xf1\xc4\xe3?m\xfak\xda\x84D\xdd?gp\xb3\x04@\x99\xd7?'
tbaI0
aF91.142876863479614
a.