(lp1
F-1.5934970724021144e+26
acnumpy.core.multiarray
_reconstruct
p2
(cnumpy
ndarray
p3
(I0
tS'b'
tRp4
(I1
(I3
tcnumpy
dtype
p5
(S'f8'
I0
I1
tRp6
(I3
S'<'
NNNI-1
I-1
I0
tbI00
S'I\x98/\x80N\xe8\xe1?\x1f\x9b\xefYH\x17\xdb?T\x96\x12\xc4\x95\x7f\xdc?'
tbaI0
aF22.750231981277466
a.