(lp1
F-53.091031276181361
acnumpy.core.multiarray
_reconstruct
p2
(cnumpy
ndarray
p3
(I0
tS'b'
tRp4
(I1
(I3
tcnumpy
dtype
p5
(S'f8'
I0
I1
tRp6
(I3
S'<'
NNNI-1
I-1
I0
tbI00
S'\xfcD\x85\x06\xf5\xf9\x19?\xef\xa2mO\x02=\xd5?\x07A&\xb2a\xc8\xde?'
tbaI0
aF87.114480018615723
a.