(lp1
F-51.698887077323356
acnumpy.core.multiarray
_reconstruct
p2
(cnumpy
ndarray
p3
(I0
tS'b'
tRp4
(I1
(I3
tcnumpy
dtype
p5
(S'f8'
I0
I1
tRp6
(I3
S'<'
NNNI-1
I-1
I0
tbI00
S'nY\r\xa2\xf8\xd8\xe9?\xad9\xfa\x8eO\x8a\xdc?f\xb2\xc5\x8dL\xab\xd8?'
tbaI0
aF87.7168869972229
a.