(lp1
F-52.918614819538902
acnumpy.core.multiarray
_reconstruct
p2
(cnumpy
ndarray
p3
(I0
tS'b'
tRp4
(I1
(I3
tcnumpy
dtype
p5
(S'f8'
I0
I1
tRp6
(I3
S'<'
NNNI-1
I-1
I0
tbI00
S'\xf4\xf1\xe9w\xd1\xff\xef?\xa6i\xe3\xdb\xd1S\xe1?G\xd7\xf7\xd1\xd78\xd3?'
tbaI0
aF87.09117603302002
a.