(lp1
F-37.787572836562717
acnumpy.core.multiarray
_reconstruct
p2
(cnumpy
ndarray
p3
(I0
tS'b'
tRp4
(I1
(I3
tcnumpy
dtype
p5
(S'f8'
I0
I1
tRp6
(I3
S'<'
NNNI-1
I-1
I0
tbI00
S'\xef\x9d\xba\x9e\x86d\xe0?+\xfc\xd5}\x13>\xdb?\xb8\xe8\xb1\xcd\x1b\x82\xdb?'
tbaI0
aF87.16169285774231
a.