(lp1
F-57.002206853829293
acnumpy.core.multiarray
_reconstruct
p2
(cnumpy
ndarray
p3
(I0
tS'b'
tRp4
(I1
(I3
tcnumpy
dtype
p5
(S'f8'
I0
I1
tRp6
(I3
S'<'
NNNI-1
I-1
I0
tbI00
S'!\xfc\xe9\xab5\xc0\xc6?\x84)n\xe1A+\xd5?\xae\xa3\xdf9\xde;\xde?'
tbaI0
aF86.419658899307251
a.