(lp1
F-54.666953787083429
acnumpy.core.multiarray
_reconstruct
p2
(cnumpy
ndarray
p3
(I0
tS'b'
tRp4
(I1
(I3
tcnumpy
dtype
p5
(S'f8'
I0
I1
tRp6
(I3
S'<'
NNNI-1
I-1
I0
tbI00
S'A\x86\xa5\x1d`k\x19?Tv\xf2\xea\x12\x89\xd5?\xc5\x88\x05\x1d,V\xdc?'
tbaI0
aF89.751548051834106
a.