(lp1
F-67.554049758090471
acnumpy.core.multiarray
_reconstruct
p2
(cnumpy
ndarray
p3
(I0
tS'b'
tRp4
(I1
(I3
tcnumpy
dtype
p5
(S'f8'
I0
I1
tRp6
(I3
S'<'
NNNI-1
I-1
I0
tbI00
S'\xcd/7G#\xbb\xd6?,\xe6/\xfel\x19\xde?u\x1d\xe9\x1f\xe6\xd9\xd5?'
tbaI0
aF86.681696176528931
a.