(lp1
F-45.095669398938369
acnumpy.core.multiarray
_reconstruct
p2
(cnumpy
ndarray
p3
(I0
tS'b'
tRp4
(I1
(I3
tcnumpy
dtype
p5
(S'f8'
I0
I1
tRp6
(I3
S'<'
NNNI-1
I-1
I0
tbI00
S'\x00\x00\x00\x00\x00\x00\xf0?b\xacc\x00\x04\x86\xe3?m\x9f\xb5\xa2L\xf4\xcd?'
tbaI0
aF89.90981388092041
a.