(lp1
F-33.756572803137317
acnumpy.core.multiarray
_reconstruct
p2
(cnumpy
ndarray
p3
(I0
tS'b'
tRp4
(I1
(I3
tcnumpy
dtype
p5
(S'f8'
I0
I1
tRp6
(I3
S'<'
NNNI-1
I-1
I0
tbI00
S']\xdb\x82,,\xdc\xcf?\x12p\xc2\xb6d!\xe1?\x8f\xb5\x8f\xafq\x16\xd8?'
tbaI0
aF86.873420000076294
a.