(lp1
F-1.92845056802391e+20
acnumpy.core.multiarray
_reconstruct
p2
(cnumpy
ndarray
p3
(I0
tS'b'
tRp4
(I1
(I3
tcnumpy
dtype
p5
(S'f8'
I0
I1
tRp6
(I3
S'<'
NNNI-1
I-1
I0
tbI00
S'\xc0\xee\xd2\xf00E\x9b?\x98\xf8\xbct\xb5\xb0\xdf?\x95k4\x8b\x0c9\xde?'
tbaI0
aF23.92413592338562
a.