(lp1
F-50.219012006552042
acnumpy.core.multiarray
_reconstruct
p2
(cnumpy
ndarray
p3
(I0
tS'b'
tRp4
(I1
(I3
tcnumpy
dtype
p5
(S'f8'
I0
I1
tRp6
(I3
S'<'
NNNI-1
I-1
I0
tbI00
S'"\x87\xdd\xbd\xab\xff\xef?1\x9f\x1e\xc4\x95F\xe1?\xa5\xa7e\xf2\x1aL\xd4?'
tbaI0
aF87.265858888626099
a.