(lp1
F-45.671308552225952
acnumpy.core.multiarray
_reconstruct
p2
(cnumpy
ndarray
p3
(I0
tS'b'
tRp4
(I1
(I3
tcnumpy
dtype
p5
(S'f8'
I0
I1
tRp6
(I3
S'<'
NNNI-1
I-1
I0
tbI00
S'\xed\xd1\x9aw\x9fZ\xe0?\xf6\x0c\x9a\x8b`\xb3\xd6?\xd4\xba\xe3\xd9;\xa9\xdc?'
tbaI0
aF87.721333980560303
a.