(lp1
F-24.635012233208101
acnumpy.core.multiarray
_reconstruct
p2
(cnumpy
ndarray
p3
(I0
tS'b'
tRp4
(I1
(I3
tcnumpy
dtype
p5
(S'f8'
I0
I1
tRp6
(I3
S'<'
NNNI-1
I-1
I0
tbI00
S'\xc3\xf5h\xf6\x8a\x80\xdb?\x14\xaeW\x81\xbe\x05\xdc?ff6k\xdb\x95\xdd?'
tbaI0
aF86.572567939758301
a.