(lp1
F-3.5478840750914903e+24
acnumpy.core.multiarray
_reconstruct
p2
(cnumpy
ndarray
p3
(I0
tS'b'
tRp4
(I1
(I3
tcnumpy
dtype
p5
(S'f8'
I0
I1
tRp6
(I3
S'<'
NNNI-1
I-1
I0
tbI00
S'Z\x16\xd8\xe3\xf0\x84\xd6?\xf8\x95<\xa0M\xab\xd8?,\xcd_\xd8i\x0b\xda?'
tbaI0
aF23.517082929611206
a.