(lp1
F-60.167132082777002
acnumpy.core.multiarray
_reconstruct
p2
(cnumpy
ndarray
p3
(I0
tS'b'
tRp4
(I1
(I3
tcnumpy
dtype
p5
(S'f8'
I0
I1
tRp6
(I3
S'<'
NNNI-1
I-1
I0
tbI00
S'D\x06\xb1w=n\xe0?\xcc$\x85\x85c\x12\xe2?\x1c\xc0%\x1ak\x9c\xd5?'
tbaI0
aF90.727545976638794
a.