(lp1
F-1710011193823.8433
acnumpy.core.multiarray
_reconstruct
p2
(cnumpy
ndarray
p3
(I0
tS'b'
tRp4
(I1
(I3
tcnumpy
dtype
p5
(S'f8'
I0
I1
tRp6
(I3
S'<'
NNNI-1
I-1
I0
tbI00
S'\tfMf\xa6\xcc\xd7?\x90\xb6tU\x0e\x8f\xe1?\x16C\x00j\x97\xb9\xd4?'
tbaI0
aF23.533999919891357
a.