(lp1
F-31.663444374552235
acnumpy.core.multiarray
_reconstruct
p2
(cnumpy
ndarray
p3
(I0
tS'b'
tRp4
(I1
(I3
tcnumpy
dtype
p5
(S'f8'
I0
I1
tRp6
(I3
S'<'
NNNI-1
I-1
I0
tbI00
S'V\x18\xec^\x86\xfb\x19?$Qh\xe2\x99d\xd3?\x88\xf1[v\x85\xe7\xe0?'
tbaI0
aF86.554967880249023
a.