(lp1
F-41.065876452030828
acnumpy.core.multiarray
_reconstruct
p2
(cnumpy
ndarray
p3
(I0
tS'b'
tRp4
(I1
(I3
tcnumpy
dtype
p5
(S'f8'
I0
I1
tRp6
(I3
S'<'
NNNI-1
I-1
I0
tbI00
S'\xa8\x00H6!\x16\xd8?\xf0A\xf5\x17\xcc\x86\xe1?!k\x10\x16\xb5\xeb\xd5?'
tbaI0
aF88.902631044387817
a.