(lp1
F-50.012545340081154
acnumpy.core.multiarray
_reconstruct
p2
(cnumpy
ndarray
p3
(I0
tS'b'
tRp4
(I1
(I3
tcnumpy
dtype
p5
(S'f8'
I0
I1
tRp6
(I3
S'<'
NNNI-1
I-1
I0
tbI00
S'\xb8\x1e\xa5\x91\xfd\x05\xdc?)\\\xdf\x04D\xe6\xda?{\x14N\xcd\x84[\xde?'
tbaI0
aF86.987617969512939
a.