(lp1
F-1313952882077078.2
acnumpy.core.multiarray
_reconstruct
p2
(cnumpy
ndarray
p3
(I0
tS'b'
tRp4
(I1
(I3
tcnumpy
dtype
p5
(S'f8'
I0
I1
tRp6
(I3
S'<'
NNNI-1
I-1
I0
tbI00
S'\xb22\xab\x8f)G\xd1?\xb2)\xd3\x1c\xca\xe4\xe1?L\xb5\x7f\xc3\x13(\xdd?'
tbaI0
aF22.318479061126709
a.