(lp1
F-1.753688933487181e+21
acnumpy.core.multiarray
_reconstruct
p2
(cnumpy
ndarray
p3
(I0
tS'b'
tRp4
(I1
(I3
tcnumpy
dtype
p5
(S'f8'
I0
I1
tRp6
(I3
S'<'
NNNI-1
I-1
I0
tbI00
S'\x95*\xbe\r6r\xe4?x\xf4\xca\xf3# \xdd?\x8f\x90\xf5\xdb\xed\xbf\xd6?'
tbaI0
aF22.331228017807007
a.