(lp1
F-1.7142301742603978e+23
acnumpy.core.multiarray
_reconstruct
p2
(cnumpy
ndarray
p3
(I0
tS'b'
tRp4
(I1
(I3
tcnumpy
dtype
p5
(S'f8'
I0
I1
tRp6
(I3
S'<'
NNNI-1
I-1
I0
tbI00
S'\xcfn@\xe9\xdd#\xcd?\xd4v`x]*\xda?\xf9n\xd9\xbbdG\xe0?'
tbaI0
aF23.127219915390015
a.