(lp1
F-48.296111809172061
acnumpy.core.multiarray
_reconstruct
p2
(cnumpy
ndarray
p3
(I0
tS'b'
tRp4
(I1
(I3
tcnumpy
dtype
p5
(S'f8'
I0
I1
tRp6
(I3
S'<'
NNNI-1
I-1
I0
tbI00
S'\xc8\x87:0^\xba\xe1?MO\x81\x1f\x11\x9b\xd9?\xd3\x88\x88\x13q-\xdc?'
tbaI0
aF89.473078012466431
a.