(lp1
F-8986181131394462
acnumpy.core.multiarray
_reconstruct
p2
(cnumpy
ndarray
p3
(I0
tS'b'
tRp4
(I1
(I3
tcnumpy
dtype
p5
(S'f8'
I0
I1
tRp6
(I3
S'<'
NNNI-1
I-1
I0
tbI00
S'\xf5\xd6\xe5\xe9\xc1\xd4\xe6?\xf5{\xc9\x9a\xb3-\xdf?\xd9^B\xf9\xc2\xe4\xdb?'
tbaI0
aF23.777662038803101
a.