(lp1
F-25588849867390.785
acnumpy.core.multiarray
_reconstruct
p2
(cnumpy
ndarray
p3
(I0
tS'b'
tRp4
(I1
(I3
tcnumpy
dtype
p5
(S'f8'
I0
I1
tRp6
(I3
S'<'
NNNI-1
I-1
I0
tbI00
S'\xa2)\xeb-\x95:\xe4?\x00\xed\x1a\xd7\xcf6\xdf?%\x90S\xbc\xd2H\xdf?'
tbaI0
aF22.527878999710083
a.