(lp1
F-37430203637.154526
acnumpy.core.multiarray
_reconstruct
p2
(cnumpy
ndarray
p3
(I0
tS'b'
tRp4
(I1
(I3
tcnumpy
dtype
p5
(S'f8'
I0
I1
tRp6
(I3
S'<'
NNNI-1
I-1
I0
tbI00
S'\x9b\x89\xbaT\xb1\xfb\xe3?\xc1\t\xa5\xdc\x00\xf5\xe2?\x1fr\x80V\xf1\x9e\xd1?'
tbaI0
aF22.353039979934692
a.