(lp1
F-78463798.492840931
acnumpy.core.multiarray
_reconstruct
p2
(cnumpy
ndarray
p3
(I0
tS'b'
tRp4
(I1
(I3
tcnumpy
dtype
p5
(S'f8'
I0
I1
tRp6
(I3
S'<'
NNNI-1
I-1
I0
tbI00
S'\xc0\xe19i\nu\xc0?0\xc0\x86G\x18\xe8\xd9?p\xd2!9\xf0k\xde?'
tbaI0
aF22.324791193008423
a.