(lp1
F-34.229729391006899
acnumpy.core.multiarray
_reconstruct
p2
(cnumpy
ndarray
p3
(I0
tS'b'
tRp4
(I1
(I3
tcnumpy
dtype
p5
(S'f8'
I0
I1
tRp6
(I3
S'<'
NNNI-1
I-1
I0
tbI00
S'I\xad@+c`\xd8?\xb9\xc4\x19B\xcb\x0b\xe0?_\xe2^\xff\xbd\x1a\xe0?'
tbaI0
aF90.837690830230713
a.