(lp1
F-32.725519376648073
acnumpy.core.multiarray
_reconstruct
p2
(cnumpy
ndarray
p3
(I0
tS'b'
tRp4
(I1
(I3
tcnumpy
dtype
p5
(S'f8'
I0
I1
tRp6
(I3
S'<'
NNNI-1
I-1
I0
tbI00
S'h\x9c\xdd\xde\xdd\xbe\x17?\xa5\xc2\x7fu\xf9?\xdf?\xca\xe3\x9bc\x02e\xe0?'
tbaI0
aF86.621841192245483
a.