(lp1
F-33.470813709171544
acnumpy.core.multiarray
_reconstruct
p2
(cnumpy
ndarray
p3
(I0
tS'b'
tRp4
(I1
(I3
tcnumpy
dtype
p5
(S'f8'
I0
I1
tRp6
(I3
S'<'
NNNI-1
I-1
I0
tbI00
S'\xea#j\x16\x88\xf3\xe3?\xfa[\x8a\x8a\xe8p\xde?u\xe7\xee\x8al\x9d\xdb?'
tbaI0
aF96.827280044555664
a.