(lp1
F-63.540961605762305
acnumpy.core.multiarray
_reconstruct
p2
(cnumpy
ndarray
p3
(I0
tS'b'
tRp4
(I1
(I3
tcnumpy
dtype
p5
(S'f8'
I0
I1
tRp6
(I3
S'<'
NNNI-1
I-1
I0
tbI00
S'\x9a\xaa8\xfb\xebZ\x19?&j\xe3\xab\x9d\x84\xd8?@e\xd1*\xb5\xd7\xdd?'
tbaI0
aF108.28937911987305
a.