(lp1
F-54.576159218819406
acnumpy.core.multiarray
_reconstruct
p2
(cnumpy
ndarray
p3
(I0
tS'b'
tRp4
(I1
(I3
tcnumpy
dtype
p5
(S'f8'
I0
I1
tRp6
(I3
S'<'
NNNI-1
I-1
I0
tbI00
S'\x00\x9c\xfb\xd2\xb3j\x03?\x1ea\x04.nA\xd4?L\t\x07\xd4\x01?\xdd?'
tbaI0
aF107.73884701728821
a.