(lp1
F-55.616036099013485
acnumpy.core.multiarray
_reconstruct
p2
(cnumpy
ndarray
p3
(I0
tS'b'
tRp4
(I1
(I3
tcnumpy
dtype
p5
(S'f8'
I0
I1
tRp6
(I3
S'<'
NNNI-1
I-1
I0
tbI00
S'\x9a\x99\xf9m\xa2s\xd3?\xcd\xcc\x8c\xf6 \xd1\xdc?\n\xd7\xd3\x121z\xdb?'
tbaI0
aF91.074995040893555
a.