(lp1
F-35.530296532175214
acnumpy.core.multiarray
_reconstruct
p2
(cnumpy
ndarray
p3
(I0
tS'b'
tRp4
(I1
(I3
tcnumpy
dtype
p5
(S'f8'
I0
I1
tRp6
(I3
S'<'
NNNI-1
I-1
I0
tbI00
S'\x8f\xc2%\xe1\xe8t\xd4?\x1f\x85[\xe9}\xf5\xd9?\xe1z\xb4\x05f\xff\xdd?'
tbaI0
aF94.739603996276855
a.