(lp1
F-36.14667664351412
acnumpy.core.multiarray
_reconstruct
p2
(cnumpy
ndarray
p3
(I0
tS'b'
tRp4
(I1
(I3
tcnumpy
dtype
p5
(S'f8'
I0
I1
tRp6
(I3
S'<'
NNNI-1
I-1
I0
tbI00
S'{p\xed\x8fk$\xe3?aH\x9f\xaa\xac\x87\xdc?L\xc2\x97\x17\xb45\xd8?'
tbaI0
aF92.341357946395874
a.