(lp1
F-37.303762714846755
acnumpy.core.multiarray
_reconstruct
p2
(cnumpy
ndarray
p3
(I0
tS'b'
tRp4
(I1
(I3
tcnumpy
dtype
p5
(S'f8'
I0
I1
tRp6
(I3
S'<'
NNNI-1
I-1
I0
tbI00
S"\x1f\x85;\x82\x93p\xe7?\x85\xebQ\xa6Y\xcd\xdf?=\n'\x03<Y\xde?"
tbaI0
aF88.928362131118774
a.