(lp1
F-53.039089967457528
acnumpy.core.multiarray
_reconstruct
p2
(cnumpy
ndarray
p3
(I0
tS'b'
tRp4
(I1
(I3
tcnumpy
dtype
p5
(S'f8'
I0
I1
tRp6
(I3
S'<'
NNNI-1
I-1
I0
tbI00
S')\xa3P\x05^\x1f\x1d?"\xa3\x06B\r\xb3\xd4?4^\xb9C\xc7\xce\xde?'
tbaI0
aF90.069976091384888
a.