(lp1
F-48.964733703929952
acnumpy.core.multiarray
_reconstruct
p2
(cnumpy
ndarray
p3
(I0
tS'b'
tRp4
(I1
(I3
tcnumpy
dtype
p5
(S'f8'
I0
I1
tRp6
(I3
S'<'
NNNI-1
I-1
I0
tbI00
S'V\xc4(\xbbu#\xde?`\xcf\xe4\xa6\x0b\xd0\xdc?\x80\xd6\xd4\xb8\x98\x18\xda?'
tbaI0
aF104.41285681724548
a.