(lp1
F-56.914898033230692
acnumpy.core.multiarray
_reconstruct
p2
(cnumpy
ndarray
p3
(I0
tS'b'
tRp4
(I1
(I3
tcnumpy
dtype
p5
(S'f8'
I0
I1
tRp6
(I3
S'<'
NNNI-1
I-1
I0
tbI00
S'E\xb1\xba\xa9\x99\x0f\xe4?{ \xef&Z\x18\xde?\x9ff\\\xab3O\xda?'
tbaI0
aF90.793256998062134
a.