(lp1
F-49.887646658267812
acnumpy.core.multiarray
_reconstruct
p2
(cnumpy
ndarray
p3
(I0
tS'b'
tRp4
(I1
(I3
tcnumpy
dtype
p5
(S'f8'
I0
I1
tRp6
(I3
S'<'
NNNI-1
I-1
I0
tbI00
S'\xd7\xa3p\x14\xe5\xed\xd8?)\\\x8f\xe0R\x89\xdd?\xb8\x1e\xe5\x98Q\x91\xdc?'
tbaI0
aF95.336097002029419
a.