(lp1
F-33.474107558586375
acnumpy.core.multiarray
_reconstruct
p2
(cnumpy
ndarray
p3
(I0
tS'b'
tRp4
(I1
(I3
tcnumpy
dtype
p5
(S'f8'
I0
I1
tRp6
(I3
S'<'
NNNI-1
I-1
I0
tbI00
S':I\x19\xf4B$\xdd?:&\xac\x03\x11\x13\xe2?\xf4\xee\xba\x86\x1a\x89\xd3?'
tbaI0
aF90.143105030059814
a.