(lp1
F-48.179628527888575
acnumpy.core.multiarray
_reconstruct
p2
(cnumpy
ndarray
p3
(I0
tS'b'
tRp4
(I1
(I3
tcnumpy
dtype
p5
(S'f8'
I0
I1
tRp6
(I3
S'<'
NNNI-1
I-1
I0
tbI00
S'\t/\xb0\xfd\xd1\xff\xef?\xc7@\x1f&\x12~\xe0?z\xd92B8C\xd8?'
tbaI0
aF91.236428022384644
a.