(lp1
F-55.955247483348366
acnumpy.core.multiarray
_reconstruct
p2
(cnumpy
ndarray
p3
(I0
tS'b'
tRp4
(I1
(I3
tcnumpy
dtype
p5
(S'f8'
I0
I1
tRp6
(I3
S'<'
NNNI-1
I-1
I0
tbI00
S"P\x1bo\xf6X\xa2\xdd?\x95\x7f\xa6\xdd\x9el\xdf?\x0baw'\x11B\xd6?"
tbaI0
aF93.330034971237183
a.