(lp1
F-48.050558585007536
acnumpy.core.multiarray
_reconstruct
p2
(cnumpy
ndarray
p3
(I0
tS'b'
tRp4
(I1
(I3
tcnumpy
dtype
p5
(S'f8'
I0
I1
tRp6
(I3
S'<'
NNNI-1
I-1
I0
tbI00
S'C\x0c\xa4\xcaP\xb9\x17?z~\x1c\xb8\\\x94\xd6?\xe2w\xaf\x9e\xb2^\xe1?'
tbaI0
aF89.56078577041626
a.