(lp1
F-44.76988604407741
acnumpy.core.multiarray
_reconstruct
p2
(cnumpy
ndarray
p3
(I0
tS'b'
tRp4
(I1
(I3
tcnumpy
dtype
p5
(S'f8'
I0
I1
tRp6
(I3
S'<'
NNNI-1
I-1
I0
tbI00
S'\xd7\x1b\x98\x01=\xd7\xe2?\x1b,\x8bB[\x16\xdf?Um\x87MC,\xdc?'
tbaI0
aF89.200014114379883
a.