(lp1
F-50.255328736285669
acnumpy.core.multiarray
_reconstruct
p2
(cnumpy
ndarray
p3
(I0
tS'b'
tRp4
(I1
(I3
tcnumpy
dtype
p5
(S'f8'
I0
I1
tRp6
(I3
S'<'
NNNI-1
I-1
I0
tbI00
S'\x81&j_I\xe7\xe4?\xef\n\xa8\x81\xd2\xc0\xe0?\x8d\x972\xe2\xea\x0e\xd8?'
tbaI0
aF102.55014681816101
a.