(lp1
F-37.257904208453162
acnumpy.core.multiarray
_reconstruct
p2
(cnumpy
ndarray
p3
(I0
tS'b'
tRp4
(I1
(I3
tcnumpy
dtype
p5
(S'f8'
I0
I1
tRp6
(I3
S'<'
NNNI-1
I-1
I0
tbI00
S'`\x8c\xdaZb\x8b\xe0?\xe6}8$\x85\xd0\xde?\x17\xe1\xc0\xcc\x1au\xde?'
tbaI0
aF89.560616016387939
a.