(lp1
F-39.778355569913614
acnumpy.core.multiarray
_reconstruct
p2
(cnumpy
ndarray
p3
(I0
tS'b'
tRp4
(I1
(I3
tcnumpy
dtype
p5
(S'f8'
I0
I1
tRp6
(I3
S'<'
NNNI-1
I-1
I0
tbI00
S'p\xf7\xe57\xb7~\xe4?*\xf3\xbd\xe9\x8b\xbf\xe2?\x14?\xf7@\xe0\xe1\xd3?'
tbaI0
aF90.605908870697021
a.