(lp1
F-47.013077861299415
acnumpy.core.multiarray
_reconstruct
p2
(cnumpy
ndarray
p3
(I0
tS'b'
tRp4
(I1
(I3
tcnumpy
dtype
p5
(S'f8'
I0
I1
tRp6
(I3
S'<'
NNNI-1
I-1
I0
tbI00
S'\xd7\xa3p\xcaJ\xb5\xdb?\xe1z4[\xcb\x0b\xdc?\x85\xeb\xb1\xe1%\x8f\xde?'
tbaI0
aF94.114454984664917
a.