(lp1
F-43.037980416196909
acnumpy.core.multiarray
_reconstruct
p2
(cnumpy
ndarray
p3
(I0
tS'b'
tRp4
(I1
(I3
tcnumpy
dtype
p5
(S'f8'
I0
I1
tRp6
(I3
S'<'
NNNI-1
I-1
I0
tbI00
S'\x1fV\x8b\x10\xd2\xff\xef?r\xbb/\xacK\x90\xe0?P\xc1\xf1#\x84*\xdb?'
tbaI0
aF89.046427965164185
a.