(lp1
F-41.505137020751626
acnumpy.core.multiarray
_reconstruct
p2
(cnumpy
ndarray
p3
(I0
tS'b'
tRp4
(I1
(I3
tcnumpy
dtype
p5
(S'f8'
I0
I1
tRp6
(I3
S'<'
NNNI-1
I-1
I0
tbI00
S'\x12R\xfe\x1e\xc4g\xe2?\xff\x0c\x18j\xa2Z\xe0?\x9c\xb0\x95\xa1\xe0\xec\xdb?'
tbaI0
aF122.25780296325684
a.