(lp1
F-29.201512599473489
acnumpy.core.multiarray
_reconstruct
p2
(cnumpy
ndarray
p3
(I0
tS'b'
tRp4
(I1
(I3
tcnumpy
dtype
p5
(S'f8'
I0
I1
tRp6
(I3
S'<'
NNNI-1
I-1
I0
tbI00
S'\xea#N_~h\xe2?5\xb9\xf6\x05\xe5\xaf\xe0?\xc9;\t*\xa4\x94\xdc?'
tbaI0
aF99.809879064559937
a.