(lp1
F-31.568846342941949
acnumpy.core.multiarray
_reconstruct
p2
(cnumpy
ndarray
p3
(I0
tS'b'
tRp4
(I1
(I3
tcnumpy
dtype
p5
(S'f8'
I0
I1
tRp6
(I3
S'<'
NNNI-1
I-1
I0
tbI00
S'\xbb\x0f\x99\x84\x8ag\x19?>@\x8b\x05\xb0\xb4\xd8?hiD\xa5jq\xe0?'
tbaI0
aF90.007480144500732
a.