(lp1
F-53.306379825715638
acnumpy.core.multiarray
_reconstruct
p2
(cnumpy
ndarray
p3
(I0
tS'b'
tRp4
(I1
(I3
tcnumpy
dtype
p5
(S'f8'
I0
I1
tRp6
(I3
S'<'
NNNI-1
I-1
I0
tbI00
S'\xc0\xe97\x85U=\xe1?\xf5\xa0\x04\xf3\x80\xe7\xdb?\x10\x9a\xf4\xc2\xe01\xdd?'
tbaI0
aF92.805662870407104
a.