(lp1
F-49.885964802097199
acnumpy.core.multiarray
_reconstruct
p2
(cnumpy
ndarray
p3
(I0
tS'b'
tRp4
(I1
(I3
tcnumpy
dtype
p5
(S'f8'
I0
I1
tRp6
(I3
S'<'
NNNI-1
I-1
I0
tbI00
S'\x00\x00\x00\x00\x00\x00\xf0?\xc8V3\xac}p\xe0?\xc1\xec\xe1r\xe2\xdf\xd3?'
tbaI0
aF91.644953012466431
a.