(lp1
F-54.654829206198315
acnumpy.core.multiarray
_reconstruct
p2
(cnumpy
ndarray
p3
(I0
tS'b'
tRp4
(I1
(I3
tcnumpy
dtype
p5
(S'f8'
I0
I1
tRp6
(I3
S'<'
NNNI-1
I-1
I0
tbI00
S'L\x880\x1b-(\xe4?\x12\x8d\n9rH\xd5?\xe6\xd1\xaf})|\xdd?'
tbaI0
aF89.827422142028809
a.