(lp1
F-49.939012159413608
acnumpy.core.multiarray
_reconstruct
p2
(cnumpy
ndarray
p3
(I0
tS'b'
tRp4
(I1
(I3
tcnumpy
dtype
p5
(S'f8'
I0
I1
tRp6
(I3
S'<'
NNNI-1
I-1
I0
tbI00
S'\xb3\xb2\xdd\xea\x04\xb3\xe0?\x81\x85\xa8\xc9Oj\xd9?N\xef\xe7\xfc\x16q\xda?'
tbaI0
aF92.980172872543335
a.