(lp1
F-29.623677568229155
acnumpy.core.multiarray
_reconstruct
p2
(cnumpy
ndarray
p3
(I0
tS'b'
tRp4
(I1
(I3
tcnumpy
dtype
p5
(S'f8'
I0
I1
tRp6
(I3
S'<'
NNNI-1
I-1
I0
tbI00
S']\xd8\x8eh[\x84\xda?\x97V\x8e\x1b\xfa\x01\xd9?\xe7qLH@X\xde?'
tbaI0
aF93.655693054199219
a.