(lp1
F-24.698525241855346
acnumpy.core.multiarray
_reconstruct
p2
(cnumpy
ndarray
p3
(I0
tS'b'
tRp4
(I1
(I3
tcnumpy
dtype
p5
(S'f8'
I0
I1
tRp6
(I3
S'<'
NNNI-1
I-1
I0
tbI00
S'\xa4p-\xf38O\xdc?\n\xd7sdd\xd9\xdf?\n\xd7C\xf2\xc8\x9d\xd9?'
tbaI0
aF92.902639865875244
a.