(lp1
F-16.907911430773616
acnumpy.core.multiarray
_reconstruct
p2
(cnumpy
ndarray
p3
(I0
tS'b'
tRp4
(I1
(I3
tcnumpy
dtype
p5
(S'f8'
I0
I1
tRp6
(I3
S'<'
NNNI-1
I-1
I0
tbI00
S'33C$ \xdf\xda?\x8f\xc2\xe5\x163$\xdd?\x85\xeb12\xf9\xac\xe0?'
tbaI0
aF93.75248122215271
a.