(lp1
F-58.522421560221758
acnumpy.core.multiarray
_reconstruct
p2
(cnumpy
ndarray
p3
(I0
tS'b'
tRp4
(I1
(I3
tcnumpy
dtype
p5
(S'f8'
I0
I1
tRp6
(I3
S'<'
NNNI-1
I-1
I0
tbI00
S'\'\xaa\xfaQ40\xe6?\xba\x91\x85\xc2m\xb3\xe1?\xc7\x0c"\x88\x08\xa3\xd1?'
tbaI0
aF89.617090940475464
a.