(lp1
F-26.080916866702847
acnumpy.core.multiarray
_reconstruct
p2
(cnumpy
ndarray
p3
(I0
tS'b'
tRp4
(I1
(I3
tcnumpy
dtype
p5
(S'f8'
I0
I1
tRp6
(I3
S'<'
NNNI-1
I-1
I0
tbI00
S'\xf2\xc6D_.\x17\xe4?\x8b\x95\x99\x13\xc1\x8f\xe2?\xd5\xdbc\xfcqH\xd5?'
tbaI0
aF100.17753505706787
a.