(lp1
F-48.958619402415771
acnumpy.core.multiarray
_reconstruct
p2
(cnumpy
ndarray
p3
(I0
tS'b'
tRp4
(I1
(I3
tcnumpy
dtype
p5
(S'f8'
I0
I1
tRp6
(I3
S'<'
NNNI-1
I-1
I0
tbI00
S'{$\x82\xf0\xfd\\\xe2?\x15\x021\xc6\xb0\x01\xde?\xe2=\\>z\xc8\xd4?'
tbaI0
aF90.550816059112549
a.