(lp1
F-52.630807511960988
acnumpy.core.multiarray
_reconstruct
p2
(cnumpy
ndarray
p3
(I0
tS'b'
tRp4
(I1
(I3
tcnumpy
dtype
p5
(S'f8'
I0
I1
tRp6
(I3
S'<'
NNNI-1
I-1
I0
tbI00
S'\x8f\xc2\xe5l\xdb\x00\xd1?\xecQ\xd8\xfc\xda\xfd\xdb?33cP\xd0\xda\xdb?'
tbaI0
aF89.510336875915527
a.