(lp1
F-53.398303100785469
acnumpy.core.multiarray
_reconstruct
p2
(cnumpy
ndarray
p3
(I0
tS'b'
tRp4
(I1
(I3
tcnumpy
dtype
p5
(S'f8'
I0
I1
tRp6
(I3
S'<'
NNNI-1
I-1
I0
tbI00
S'\xa4p=\xd8\xd4\xb7\xda?{\x14\xa6\x1e\xad\r\xe1?\x00\x00\x90\xf1\x0bp\xd6?'
tbaI0
aF90.824231863021851
a.