(lp1
F-36.00070483458903
acnumpy.core.multiarray
_reconstruct
p2
(cnumpy
ndarray
p3
(I0
tS'b'
tRp4
(I1
(I3
tcnumpy
dtype
p5
(S'f8'
I0
I1
tRp6
(I3
S'<'
NNNI-1
I-1
I0
tbI00
S'#S\x8421o\xd0?\xcf\xc3j5\x80\x11\xe0?\x0edJ\xd1%\xa5\xdb?'
tbaI0
aF99.151959180831909
a.