(lp1
F-20.234802144885276
acnumpy.core.multiarray
_reconstruct
p2
(cnumpy
ndarray
p3
(I0
tS'b'
tRp4
(I1
(I3
tcnumpy
dtype
p5
(S'f8'
I0
I1
tRp6
(I3
S'<'
NNNI-1
I-1
I0
tbI00
S')\\\xfff\xa5j\xd1?\x85\xeb\x91\xad\x7f4\xd6?\x8f\xc2\xa5\x08\\\xc1\xdf?'
tbaI0
aF89.249586820602417
a.