(lp1
F-45.57849304674189
acnumpy.core.multiarray
_reconstruct
p2
(cnumpy
ndarray
p3
(I0
tS'b'
tRp4
(I1
(I3
tcnumpy
dtype
p5
(S'f8'
I0
I1
tRp6
(I3
S'<'
NNNI-1
I-1
I0
tbI00
S'\xae\xd0\xad"{q\x19?\xa8\x1a\xb0\x8b\xdb\xba\xe1?\xbe0"\xef\xfc8\xd5?'
tbaI0
aF89.416616201400757
a.