(lp1
F-52.46425756353301
acnumpy.core.multiarray
_reconstruct
p2
(cnumpy
ndarray
p3
(I0
tS'b'
tRp4
(I1
(I3
tcnumpy
dtype
p5
(S'f8'
I0
I1
tRp6
(I3
S'<'
NNNI-1
I-1
I0
tbI00
S'\xd7\xb6P\xd0\x877\xe1?\xa6\xbe\xd3rl\xc5\xe3?)\\c yM\xd5?'
tbaI0
aF117.05470204353333
a.