(lp1
F-29.334859073925234
acnumpy.core.multiarray
_reconstruct
p2
(cnumpy
ndarray
p3
(I0
tS'b'
tRp4
(I1
(I3
tcnumpy
dtype
p5
(S'f8'
I0
I1
tRp6
(I3
S'<'
NNNI-1
I-1
I0
tbI00
S'\xe8N\x9bu#?\xd8?\x982\xb1\x90e\xd2\xdd?s\xf0\xec\x0c7$\xe0?'
tbaI0
aF90.393730878829956
a.