(lp1
F-24.4854549917886
acnumpy.core.multiarray
_reconstruct
p2
(cnumpy
ndarray
p3
(I0
tS'b'
tRp4
(I1
(I3
tcnumpy
dtype
p5
(S'f8'
I0
I1
tRp6
(I3
S'<'
NNNI-1
I-1
I0
tbI00
S'\x17\x8a\xd9\xe97T\xe3? M\x84\xd5/\xc9\xe0?M\xca\x12\xa3>n\xda?'
tbaI0
aF88.99710488319397
a.