(lp1
F-48.682687375880086
acnumpy.core.multiarray
_reconstruct
p2
(cnumpy
ndarray
p3
(I0
tS'b'
tRp4
(I1
(I3
tcnumpy
dtype
p5
(S'f8'
I0
I1
tRp6
(I3
S'<'
NNNI-1
I-1
I0
tbI00
S'\xc8x>\xa4\x0e\x0b\xe2?\xb2\x88\xdfv\xf7\xab\xda?(\xcd\t\x16a\x99\xdd?'
tbaI0
aF98.379338026046753
a.