(lp1
F-36.005869350974315
acnumpy.core.multiarray
_reconstruct
p2
(cnumpy
ndarray
p3
(I0
tS'b'
tRp4
(I1
(I3
tcnumpy
dtype
p5
(S'f8'
I0
I1
tRp6
(I3
S'<'
NNNI-1
I-1
I0
tbI00
S'1m\xe1\x97\x1e\xfb\xde?mg\xadl\r\xe3\xe0?\r\xb9&\xd4z\xb8\xcf?'
tbaI0
aF93.819340944290161
a.