(lp1
F-65.738872875479856
acnumpy.core.multiarray
_reconstruct
p2
(cnumpy
ndarray
p3
(I0
tS'b'
tRp4
(I1
(I3
tcnumpy
dtype
p5
(S'f8'
I0
I1
tRp6
(I3
S'<'
NNNI-1
I-1
I0
tbI00
S'\xcb_\xc9B\xa4\x13\xd7?X\xa3\xf0\x88\xea\xb4\xe0?\xb4\x1a\x9c\x1ct&\xd3?'
tbaI0
aF89.469834089279175
a.