(lp1
F-58.857231179649879
acnumpy.core.multiarray
_reconstruct
p2
(cnumpy
ndarray
p3
(I0
tS'b'
tRp4
(I1
(I3
tcnumpy
dtype
p5
(S'f8'
I0
I1
tRp6
(I3
S'<'
NNNI-1
I-1
I0
tbI00
S'\xc3\xf5\xd8(\x8b<\xd0?\xc3\xf5H\xe9\xdbM\xde?q=jcf\x19\xdc?'
tbaI0
aF100.37485098838806
a.